(lp0
S'Age'
p1
aS'Height(CM)'
p2
aS'Weight(KG)'
p3
aS'Crossing(0-100)'
p4
aS'ShortPassing(0-100)'
p5
aS'Volleys(0-100)'
p6
aS'Dribbling(0-100)'
p7
aS'Curve(0-100)'
p8
aS'LongPassing(0-100)'
p9
aS'BallControl(0-100)'
p10
aS'Acceleration(0-100)'
p11
aS'SprintSpeed(0-100)'
p12
aS'Agility(0-100)'
p13
aS'Reactions(0-100)'
p14
aS'Balance(0-100)'
p15
aS'ShotPower(0-100)'
p16
aS'Jumping(0-100)'
p17
aS'Stamina(0-100)'
p18
aS'Strength(0-100)'
p19
aS'LongShots(0-100)'
p20
aS'Positioning(0-100)'
p21
aS'Vision(0-100)'
p22
aS'Composure(0-100)'
p23
aS'Marking(0-100)'
p24
aS'StandingTackle(0-100)'
p25
aS'SlidingTackle(0-100)'
p26
aS'WeakFoot(0-5)'
p27
aS'SkillMoves(0-5)'
p28
aS'Overall(0-100)'
p29
aS'Potential(0-100)'
p30
aS'Value(M)'
p31
a.