(iregression_tree
decision_node
p0
(dp1
S'fb'
p2
(iregression_tree
decision_node
p3
(dp4
g2
(iregression_tree
decision_node
p5
(dp6
g2
(iregression_tree
decision_node
p7
(dp8
g2
(iregression_tree
decision_node
p9
(dp10
g2
(iregression_tree
decision_node
p11
(dp12
g2
(iregression_tree
decision_node
p13
(dp14
g2
NsS'tb'
p15
NsS'col'
p16
I-1
sS'value'
p17
NsS'results'
p18
(dp19
F0.09
I1
sF0.1
I1
sF10.0
I1
sF0.06
I3
sF20.0
I1
sF30.0
I1
sF0.07
I11
sF0.04
I6
ssbsg15
(iregression_tree
decision_node
p20
(dp21
g2
(iregression_tree
decision_node
p22
(dp23
g2
(iregression_tree
decision_node
p24
(dp25
g2
(iregression_tree
decision_node
p26
(dp27
g2
Nsg15
Nsg16
I-1
sg17
Nsg18
(dp28
F0.16
I2
sF0.05
I50
sF0.1
I68
sF0.13
I58
sF0.04
I12
sF0.11
I54
sF0.15
I17
sF0.09
I42
sF0.06
I71
sF0.12
I51
sF0.07
I49
sF0.14
I6
sF0.08
I35
ssbsg15
(iregression_tree
decision_node
p29
(dp30
g2
Nsg15
Nsg16
I-1
sg17
Nsg18
(dp31
F0.0
I6
sF0.18
I52
sF0.2
I38
sF0.1
I18
sF0.13
I41
sF0.08
I2
sF0.22
I19
sF0.15
I31
sF0.09
I13
sF0.12
I41
sF0.17
I45
sF0.04
I1
sF0.19
I60
sF0.24
I3
sF0.21
I20
sF0.14
I79
sF0.23
I24
sF0.11
I30
sF0.16
I74
ssbsg16
I28
sg17
F55.0
sg18
Nsbsg15
(iregression_tree
decision_node
p32
(dp33
g2
(iregression_tree
decision_node
p34
(dp35
g2
Nsg15
Nsg16
I-1
sg17
Nsg18
(dp36
F0.25
I27
sF0.0
I13
sF0.22
I67
sF0.09
I6
sF0.19
I21
sF0.24
I33
sF0.16
I33
sF0.29
I3
sF0.06
I3
sF0.26
I21
sF0.12
I15
sF0.325
I12
sF0.07
I3
sF0.21
I47
sF0.11
I2
sF0.18
I35
sF0.3
I11
sF0.15
I27
sF0.1
I7
sF0.27
I20
sF0.23
I23
sF0.28
I22
sF0.05
I2
sF0.2
I40
sF0.17
I49
sF0.13
I14
sF0.14
I11
ssbsg15
(iregression_tree
decision_node
p37
(dp38
g2
(iregression_tree
decision_node
p39
(dp40
g2
Nsg15
Nsg16
I-1
sg17
Nsg18
(dp41
F0.25
I19
sF0.0
I1
sF0.29
I13
sF0.2
I3
sF0.26
I16
sF0.22
I15
sF0.3
I26
sF0.24
I16
sF0.27
I24
sF0.325
I27
sF0.19
I1
sF0.21
I5
sF0.35
I5
sF0.28
I16
sF0.23
I14
ssbsg15
(iregression_tree
decision_node
p42
(dp43
g2
(iregression_tree
decision_node
p44
(dp45
g2
Nsg15
Nsg16
I-1
sg17
Nsg18
(dp46
F0.375
I12
sF0.29
I7
sF0.3
I9
sF0.325
I33
sF0.35
I18
sF0.28
I1
ssbsg15
(iregression_tree
decision_node
p47
(dp48
g2
Nsg15
Nsg16
I-1
sg17
Nsg18
(dp49
F0.375
I15
sF0.4
I40
sF0.325
I1
sF0.425
I13
sF0.45
I26
sF0.35
I9
ssbsg16
I29
sg17
F73.0
sg18
Nsbsg16
I28
sg17
F60.0
sg18
Nsbsg16
I29
sg17
F70.0
sg18
Nsbsg16
I28
sg17
F58.0
sg18
Nsbsg15
(iregression_tree
decision_node
p50
(dp51
g2
(iregression_tree
decision_node
p52
(dp53
g2
(iregression_tree
decision_node
p54
(dp55
g2
(iregression_tree
decision_node
p56
(dp57
g2
(iregression_tree
decision_node
p58
(dp59
g2
Nsg15
Nsg16
I-1
sg17
Nsg18
(dp60
F0.25
I18
sF0.18
I4
sF0.29
I1
sF0.2
I8
sF0.26
I7
sF0.22
I2
sF0.3
I2
sF0.24
I7
sF0.27
I14
sF0.325
I1
sF0.19
I2
sF0.21
I5
sF0.28
I4
sF0.23
I1
ssbsg15
(iregression_tree
decision_node
p61
(dp62
g2
(iregression_tree
decision_node
p63
(dp64
g2
Nsg15
Nsg16
I-1
sg17
Nsg18
(dp65
F0.375
I28
sF0.29
I5
sF0.4
I8
sF0.3
I9
sF0.325
I23
sF0.35
I14
ssbsg15
(iregression_tree
decision_node
p66
(dp67
g2
Nsg15
Nsg16
I-1
sg17
Nsg18
(dp68
F0.25
I5
sF0.375
I3
sF0.29
I17
sF0.26
I2
sF0.22
I3
sF0.3
I21
sF0.24
I6
sF0.27
I7
sF0.35
I4
sF0.28
I12
sF0.23
I6
ssbsg16
I25
sg17
F54.0
sg18
Nsbsg16
I28
sg17
F62.0
sg18
Nsbsg15
(iregression_tree
decision_node
p69
(dp70
g2
(iregression_tree
decision_node
p71
(dp72
g2
(iregression_tree
decision_node
p73
(dp74
g2
Nsg15
Nsg16
I-1
sg17
Nsg18
(dp75
F0.0
I1
sF0.25
I3
sF0.2
I9
sF0.24
I2
sF0.17
I13
sF0.14
I2
sF0.23
I2
sF0.16
I5
ssbsg15
(iregression_tree
decision_node
p76
(dp77
g2
Nsg15
Nsg16
I-1
sg17
Nsg18
(dp78
F0.29
I3
sF0.2
I5
sF0.24
I4
sF0.17
I2
sF0.27
I9
sF0.325
I11
sF0.28
I1
ssbsg16
I5
sg17
F43.0
sg18
Nsbsg15
(iregression_tree
decision_node
p79
(dp80
g2
Nsg15
Nsg16
I-1
sg17
Nsg18
(dp81
F0.09
I3
sF0.1
I4
sF0.13
I4
sF0.22
I3
sF0.15
I8
sF0.18
I1
sF0.12
I3
sF0.17
I2
sF0.19
I3
sF0.16
I9
sF0.14
I2
sF0.23
I1
sF0.07
I2
sF0.08
I4
ssbsg16
I0
sg17
F33.0
sg18
Nsbsg16
I0
sg17
F31.0
sg18
Nsbsg15
(iregression_tree
decision_node
p82
(dp83
g2
(iregression_tree
decision_node
p84
(dp85
g2
(iregression_tree
decision_node
p86
(dp87
g2
(iregression_tree
decision_node
p88
(dp89
g2
Nsg15
Nsg16
I-1
sg17
Nsg18
(dp90
F0.375
I15
sF0.35
I4
sF0.325
I23
sF0.3
I3
sF0.4
I7
ssbsg15
(iregression_tree
decision_node
p91
(dp92
g2
Nsg15
Nsg16
I-1
sg17
Nsg18
(dp93
F0.0
I4
sF0.29
I6
sF0.4
I1
sF0.26
I6
sF0.3
I12
sF0.27
I9
sF0.325
I24
sF0.35
I1
sF0.28
I6
ssbsg16
I25
sg17
F54.0
sg18
Nsbsg15
(iregression_tree
decision_node
p94
(dp95
g2
Nsg15
Nsg16
I-1
sg17
Nsg18
(dp96
F0.375
I41
sF0.29
I6
sF0.3
I6
sF0.4
I61
sF0.325
I19
sF0.425
I28
sF0.45
I19
sF0.475
I9
sF0.35
I48
ssbsg16
I29
sg17
F67.0
sg18
Nsbsg15
(iregression_tree
decision_node
p97
(dp98
g2
(iregression_tree
decision_node
p99
(dp100
g2
(iregression_tree
decision_node
p101
(dp102
g2
(iregression_tree
decision_node
p103
(dp104
g2
(iregression_tree
decision_node
p105
(dp106
g2
Nsg15
Nsg16
I-1
sg17
Nsg18
(dp107
F0.5
I29
sF0.475
I11
sF0.45
I7
sF0.55
I7
sF0.525
I21
ssbsg15
(iregression_tree
decision_node
p108
(dp109
g2
Nsg15
Nsg16
I-1
sg17
Nsg18
(dp110
F0.5
I10
sF0.375
I3
sF0.55
I1
sF0.4
I26
sF0.525
I5
sF0.425
I43
sF0.45
I24
sF0.35
I1
sF0.475
I21
sF0.0
I2
ssbsg16
I25
sg17
F45.0
sg18
Nsbsg15
(iregression_tree
decision_node
p111
(dp112
g2
(iregression_tree
decision_node
p113
(dp114
g2
Nsg15
Nsg16
I-1
sg17
Nsg18
(dp115
F0.625
I21
sF0.5
I1
sF0.55
I10
sF0.525
I2
sF0.6
I21
sF0.65
I7
sF0.575
I16
ssbsg15
(iregression_tree
decision_node
p116
(dp117
g2
Nsg15
Nsg16
I-1
sg17
Nsg18
(dp118
F0.5
I33
sF0.625
I1
sF0.55
I16
sF0.45
I4
sF0.6
I2
sF0.525
I33
sF0.575
I2
sF0.475
I7
ssbsg16
I25
sg17
F57.0
sg18
Nsbsg16
I28
sg17
F64.0
sg18
Nsbsg15
(iregression_tree
decision_node
p119
(dp120
g2
(iregression_tree
decision_node
p121
(dp122
g2
Nsg15
Nsg16
I-1
sg17
Nsg18
(dp123
F0.375
I1
sF0.5
I2
sF0.55
I11
sF0.525
I11
sF0.425
I14
sF0.45
I19
sF0.475
I31
ssbsg15
(iregression_tree
decision_node
p124
(dp125
g2
Nsg15
Nsg16
I-1
sg17
Nsg18
(dp126
F0.375
I38
sF0.5
I1
sF0.4
I8
sF0.525
I6
sF0.425
I12
sF0.45
I34
sF0.35
I34
sF0.475
I18
sF0.325
I3
sF0.0
I2
ssbsg16
I25
sg17
F54.0
sg18
Nsbsg16
I0
sg17
F26.0
sg18
Nsbsg15
(iregression_tree
decision_node
p127
(dp128
g2
(iregression_tree
decision_node
p129
(dp130
g2
(iregression_tree
decision_node
p131
(dp132
g2
Nsg15
Nsg16
I-1
sg17
Nsg18
(dp133
F0.375
I4
sF0.425
I7
sF0.4
I16
ssbsg15
(iregression_tree
decision_node
p134
(dp135
g2
Nsg15
Nsg16
I-1
sg17
Nsg18
(dp136
F0.0
I3
sF0.375
I2
sF0.4
I2
sF0.425
I10
sF0.3
I8
sF0.325
I15
ssbsg16
I25
sg17
F30.0
sg18
Nsbsg15
(iregression_tree
decision_node
p137
(dp138
g2
Nsg15
Nsg16
I-1
sg17
Nsg18
(dp139
F0.25
I4
sF0.18
I7
sF0.26
I8
sF0.22
I4
sF0.11
I1
sF0.24
I4
sF0.17
I3
sF0.27
I6
sF0.13
I2
sF0.35
I3
sF0.14
I4
sF0.28
I1
ssbsg16
I0
sg17
F32.0
sg18
Nsbsg16
I0
sg17
F30.0
sg18
Nsbsg16
I28
sg17
F63.0
sg18
Nsbsg16
I29
sg17
F64.0
sg18
Nsbsg15
(iregression_tree
decision_node
p140
(dp141
g2
(iregression_tree
decision_node
p142
(dp143
g2
(iregression_tree
decision_node
p144
(dp145
g2
Nsg15
Nsg16
I-1
sg17
Nsg18
(dp146
F0.5
I12
sF0.375
I16
sF0.55
I6
sF0.4
I9
sF0.525
I14
sF0.425
I28
sF0.45
I35
sF0.475
I34
ssbsg15
(iregression_tree
decision_node
p147
(dp148
g2
(iregression_tree
decision_node
p149
(dp150
g2
(iregression_tree
decision_node
p151
(dp152
g2
Nsg15
Nsg16
I-1
sg17
Nsg18
(dp153
F0.5
I12
sF0.475
I5
sF0.45
I6
sF0.0
I2
ssbsg15
(iregression_tree
decision_node
p154
(dp155
g2
Nsg15
Nsg16
I-1
sg17
Nsg18
(dp156
F0.5
I10
sF0.475
I1
sF0.525
I19
sF0.55
I23
ssbsg16
I19
sg17
F42.0
sg18
Nsbsg15
(iregression_tree
decision_node
p157
(dp158
g2
Nsg15
Nsg16
I-1
sg17
Nsg18
(dp159
F0.625
I11
sF0.5
I1
sF0.675
I15
sF0.55
I7
sF0.525
I4
sF0.6
I16
sF0.65
I31
sF0.475
I1
sF0.575
I12
sF0.7
I1
ssbsg16
I28
sg17
F62.0
sg18
Nsbsg16
I29
sg17
F75.0
sg18
Nsbsg15
(iregression_tree
decision_node
p160
(dp161
g2
(iregression_tree
decision_node
p162
(dp163
g2
(iregression_tree
decision_node
p164
(dp165
g2
(iregression_tree
decision_node
p166
(dp167
g2
Nsg15
Nsg16
I-1
sg17
Nsg18
(dp168
F0.5
I5
sF0.625
I2
sF0.55
I1
sF0.675
I2
sF0.6
I1
sF0.525
I1
sF0.7
I1
sF0.575
I6
sF0.0
I4
ssbsg15
(iregression_tree
decision_node
p169
(dp170
g2
(iregression_tree
decision_node
p171
(dp172
g2
Nsg15
Nsg16
I-1
sg17
Nsg18
(dp173
F0.5
I5
sF0.625
I5
sF0.55
I16
sF0.65
I3
sF0.6
I11
sF0.525
I8
sF0.475
I3
sF0.575
I16
sF0.7
I3
ssbsg15
(iregression_tree
decision_node
p174
(dp175
g2
(iregression_tree
decision_node
p176
(dp177
g2
Nsg15
Nsg16
I-1
sg17
Nsg18
(dp178
F0.575
I13
sF0.65
I2
sF0.6
I13
sF0.675
I4
sF0.7
I3
ssbsg15
(iregression_tree
decision_node
p179
(dp180
g2
Nsg15
Nsg16
I-1
sg17
Nsg18
(dp181
F0.625
I2
sF0.675
I15
sF0.8
I2
sF0.725
I7
sF0.65
I10
sF0.825
I1
sF0.7
I1
ssbsg16
I29
sg17
F74.0
sg18
Nsbsg16
I28
sg17
F64.0
sg18
Nsbsg16
I9
sg17
F50.0
sg18
Nsbsg15
(iregression_tree
decision_node
p182
(dp183
g2
(iregression_tree
decision_node
p184
(dp185
g2
Nsg15
Nsg16
I-1
sg17
Nsg18
(dp186
F0.625
I6
sF0.675
I1
sF0.525
I2
sF0.6
I6
sF0.65
I9
sF0.7
I5
sF0.575
I8
ssbsg15
(iregression_tree
decision_node
p187
(dp188
g2
(iregression_tree
decision_node
p189
(dp190
g2
Nsg15
Nsg16
I-1
sg17
Nsg18
(dp191
F0.7
I5
sF0.65
I6
sF0.675
I8
sF0.575
I3
ssbsg15
(iregression_tree
decision_node
p192
(dp193
g2
Nsg15
Nsg16
I-1
sg17
Nsg18
(dp194
F0.75
I9
sF0.625
I1
sF0.8
I3
sF0.725
I18
sF0.775
I15
sF0.825
I5
ssbsg16
I29
sg17
F74.0
sg18
Nsbsg16
I28
sg17
F64.0
sg18
Nsbsg16
I27
sg17
F3.0
sg18
Nsbsg15
(iregression_tree
decision_node
p195
(dp196
g2
(iregression_tree
decision_node
p197
(dp198
g2
(iregression_tree
decision_node
p199
(dp200
g2
Nsg15
Nsg16
I-1
sg17
Nsg18
(dp201
F0.75
I3
sF0.8
I11
sF0.85
I1
sF0.725
I2
sF0.775
I3
sF0.825
I1
ssbsg15
(iregression_tree
decision_node
p202
(dp203
g2
Nsg15
Nsg16
I-1
sg17
Nsg18
(dp204
F0.75
I1
sF0.675
I1
sF0.65
I2
sF0.725
I12
sF0.775
I2
sF0.7
I3
ssbsg16
I24
sg17
F56.0
sg18
Nsbsg15
(iregression_tree
decision_node
p205
(dp206
g2
(iregression_tree
decision_node
p207
(dp208
g2
Nsg15
Nsg16
I-1
sg17
Nsg18
(dp209
F0.875
I3
sF1.0
I6
sF0.8
I1
sF0.925
I4
sF0.975
I15
sF0.85
I1
sF0.95
I3
ssbsg15
(iregression_tree
decision_node
p210
(dp211
g2
Nsg15
Nsg16
I-1
sg17
Nsg18
(dp212
F0.875
I9
sF0.925
I2
sF0.8
I3
sF0.9
I3
sF0.85
I4
sF0.775
I3
sF0.825
I2
sF0.95
I3
sF0.7
I1
ssbsg16
I24
sg17
F58.0
sg18
Nsbsg16
I28
sg17
F64.0
sg18
Nsbsg16
I29
sg17
F77.0
sg18
Nsbsg16
I28
sg17
F63.0
sg18
Nsbsg16
I29
sg17
F72.0
sg18
Nsbsg16
I28
sg17
F61.0
sg18
Nsbsg16
I29
sg17
F56.0
sg18
Nsbsg15
(iregression_tree
decision_node
p213
(dp214
g2
(iregression_tree
decision_node
p215
(dp216
g2
(iregression_tree
decision_node
p217
(dp218
g2
(iregression_tree
decision_node
p219
(dp220
g2
(iregression_tree
decision_node
p221
(dp222
g2
(iregression_tree
decision_node
p223
(dp224
g2
(iregression_tree
decision_node
p225
(dp226
g2
Nsg15
Nsg16
I-1
sg17
Nsg18
(dp227
F0.5
I10
sF0.55
I13
sF0.4
I1
sF0.525
I19
sF0.475
I13
sF0.575
I15
ssbsg15
(iregression_tree
decision_node
p228
(dp229
g2
Nsg15
Nsg16
I-1
sg17
Nsg18
(dp230
F0.625
I31
sF0.0
I1
sF0.55
I2
sF0.675
I24
sF0.425
I1
sF0.6
I4
sF0.65
I26
sF0.7
I10
sF0.575
I20
ssbsg16
I29
sg17
F66.0
sg18
Nsbsg15
(iregression_tree
decision_node
p231
(dp232
g2
Nsg15
Nsg16
I-1
sg17
Nsg18
(dp233
F0.75
I28
sF0.6
I1
sF0.675
I11
sF0.8
I20
sF0.65
I4
sF0.725
I20
sF0.775
I26
sF0.7
I3
sF0.825
I15
ssbsg16
I29
sg17
F67.0
sg18
Nsbsg15
(iregression_tree
decision_node
p234
(dp235
g2
(iregression_tree
decision_node
p236
(dp237
g2
(iregression_tree
decision_node
p238
(dp239
g2
Nsg15
Nsg16
I-1
sg17
Nsg18
(dp240
F0.55
I8
sF0.525
I2
sF0.425
I5
sF0.45
I13
sF0.575
I4
sF0.475
I1
ssbsg15
(iregression_tree
decision_node
p241
(dp242
g2
Nsg15
Nsg16
I-1
sg17
Nsg18
(dp243
F0.375
I5
sF0.5
I3
sF0.4
I24
sF0.425
I8
sF0.525
I1
sF0.475
I2
sF0.35
I5
ssbsg16
I0
sg17
F29.0
sg18
Nsbsg15
(iregression_tree
decision_node
p244
(dp245
g2
(iregression_tree
decision_node
p246
(dp247
g2
(iregression_tree
decision_node
p248
(dp249
g2
Nsg15
Nsg16
I-1
sg17
Nsg18
(dp250
F0.75
I1
sF0.5
I34
sF0.6
I2
sF0.55
I15
sF0.65
I2
sF0.425
I10
sF0.525
I31
sF0.575
I2
sF0.475
I31
sF0.0
I3
sF0.625
I7
ssbsg15
(iregression_tree
decision_node
p251
(dp252
g2
(iregression_tree
decision_node
p253
(dp254
g2
Nsg15
Nsg16
I-1
sg17
Nsg18
(dp255
F0.625
I13
sF0.0
I1
sF0.6
I24
sF0.725
I2
sF0.65
I3
sF0.575
I8
ssbsg15
(iregression_tree
decision_node
p256
(dp257
g2
Nsg15
Nsg16
I-1
sg17
Nsg18
(dp258
F0.5
I4
sF0.575
I4
sF0.525
I13
sF0.55
I8
sF0.0
I1
ssbsg16
I0
sg17
F30.0
sg18
Nsbsg16
I28
sg17
F67.0
sg18
Nsbsg15
(iregression_tree
decision_node
p259
(dp260
g2
(iregression_tree
decision_node
p261
(dp262
g2
(iregression_tree
decision_node
p263
(dp264
g2
Nsg15
Nsg16
I-1
sg17
Nsg18
(dp265
F0.625
I6
sF0.5
I1
sF0.55
I3
sF0.65
I2
sF0.6
I4
sF0.525
I2
sF0.575
I3
sF0.475
I3
sF0.75
I1
ssbsg15
(iregression_tree
decision_node
p266
(dp267
g2
Nsg15
Nsg16
I-1
sg17
Nsg18
(dp268
F0.625
I6
sF0.75
I3
sF0.8
I1
sF0.675
I5
sF0.775
I2
sF0.55
I2
sF0.65
I6
sF0.7
I4
sF0.5
I2
ssbsg16
I19
sg17
F59.0
sg18
Nsbsg15
(iregression_tree
decision_node
p269
(dp270
g2
Nsg15
Nsg16
I-1
sg17
Nsg18
(dp271
F0.0
I1
sF0.625
I2
sF0.55
I3
sF0.525
I5
sF0.6
I10
sF0.65
I2
sF0.575
I2
sF0.475
I2
sF0.5
I2
ssbsg16
I23
sg17
F65.0
sg18
Nsbsg16
I20
sg17
F59.0
sg18
Nsbsg16
I29
sg17
F66.0
sg18
Nsbsg16
I25
sg17
F55.0
sg18
Nsbsg15
(iregression_tree
decision_node
p272
(dp273
g2
(iregression_tree
decision_node
p274
(dp275
g2
(iregression_tree
decision_node
p276
(dp277
g2
(iregression_tree
decision_node
p278
(dp279
g2
(iregression_tree
decision_node
p280
(dp281
g2
Nsg15
Nsg16
I-1
sg17
Nsg18
(dp282
F0.6
I1
sF0.7
I16
sF0.725
I7
sF0.675
I5
ssbsg15
(iregression_tree
decision_node
p283
(dp284
g2
Nsg15
Nsg16
I-1
sg17
Nsg18
(dp285
F0.0
I1
sF0.825
I10
sF0.775
I8
sF0.8
I10
ssbsg16
I28
sg17
F66.0
sg18
Nsbsg15
(iregression_tree
decision_node
p286
(dp287
g2
(iregression_tree
decision_node
p288
(dp289
g2
(iregression_tree
decision_node
p290
(dp291
g2
(iregression_tree
decision_node
p292
(dp293
g2
Nsg15
Nsg16
I-1
sg17
Nsg18
(dp294
F0.875
I7
sF0.0
I1
sF0.9
I20
sF0.85
I1
ssbsg15
(iregression_tree
decision_node
p295
(dp296
g2
Nsg15
Nsg16
I-1
sg17
Nsg18
(dp297
F0.95
I31
sF0.9
I12
sF0.975
I1
sF0.925
I11
ssbsg16
I28
sg17
F68.0
sg18
Nsbsg15
(iregression_tree
decision_node
p298
(dp299
g2
(iregression_tree
decision_node
p300
(dp301
g2
Nsg15
Nsg16
I-1
sg17
Nsg18
(dp302
F0.875
I10
sF0.9
I7
sF0.85
I3
sF0.8
I4
ssbsg15
(iregression_tree
decision_node
p303
(dp304
g2
Nsg15
Nsg16
I-1
sg17
Nsg18
(dp305
F0.875
I3
sF0.0
I1
sF0.8
I1
sF0.775
I7
sF0.85
I7
sF0.9
I3
ssbsg16
I23
sg17
F36.0
sg18
Nsbsg16
I0
sg17
F29.0
sg18
Nsbsg15
(iregression_tree
decision_node
p306
(dp307
g2
Nsg15
Nsg16
I-1
sg17
Nsg18
(dp308
F1.0
I9
sF0.775
I1
sF1.1
I9
sF0.925
I6
sF0.95
I5
ssbsg16
I29
sg17
F69.0
sg18
Nsbsg16
I28
sg17
F67.0
sg18
Nsbsg15
(iregression_tree
decision_node
p309
(dp310
g2
(iregression_tree
decision_node
p311
(dp312
g2
Nsg15
Nsg16
I-1
sg17
Nsg18
(dp313
F1.2
I3
sF1.1
I49
ssbsg15
(iregression_tree
decision_node
p314
(dp315
g2
Nsg15
Nsg16
I-1
sg17
Nsg18
(dp316
F1.0
I28
sF0.975
I1
sF1.1
I4
sF0.925
I7
sF0.95
I4
ssbsg16
I0
sg17
F29.0
sg18
Nsbsg16
I28
sg17
F69.0
sg18
Nsbsg15
(iregression_tree
decision_node
p317
(dp318
g2
(iregression_tree
decision_node
p319
(dp320
g2
(iregression_tree
decision_node
p321
(dp322
g2
(iregression_tree
decision_node
p323
(dp324
g2
Nsg15
Nsg16
I-1
sg17
Nsg18
(dp325
F0.625
I3
sF0.725
I1
sF0.675
I5
sF0.55
I2
sF0.775
I1
sF0.6
I8
sF0.65
I3
sF0.825
I3
sF0.7
I2
ssbsg15
(iregression_tree
decision_node
p326
(dp327
g2
Nsg15
Nsg16
I-1
sg17
Nsg18
(dp328
F0.0
I6
sF0.625
I1
sF0.925
I2
sF0.675
I3
sF0.6
I3
sF0.55
I5
sF0.65
I3
sF0.575
I1
ssbsg16
I10
sg17
F65.0
sg18
Nsbsg15
(iregression_tree
decision_node
p329
(dp330
g2
(iregression_tree
decision_node
p331
(dp332
g2
Nsg15
Nsg16
I-1
sg17
Nsg18
(dp333
F0.75
I3
sF0.625
I1
sF0.85
I1
sF0.675
I4
sF0.55
I3
sF0.775
I1
sF0.725
I1
sF0.6
I3
sF0.65
I6
sF0.825
I1
sF0.575
I7
sF0.7
I1
sF0.0
I1
ssbsg15
(iregression_tree
decision_node
p334
(dp335
g2
Nsg15
Nsg16
I-1
sg17
Nsg18
(dp336
F0.75
I6
sF0.675
I5
sF0.6
I1
sF0.725
I3
sF0.65
I2
sF0.7
I2
sF0.825
I7
ssbsg16
I24
sg17
F68.0
sg18
Nsbsg16
I17
sg17
F69.0
sg18
Nsbsg15
(iregression_tree
decision_node
p337
(dp338
g2
(iregression_tree
decision_node
p339
(dp340
g2
(iregression_tree
decision_node
p341
(dp342
g2
Nsg15
Nsg16
I-1
sg17
Nsg18
(dp343
F0.575
I11
sF0.6
I7
sF0.675
I4
sF0.55
I6
sF0.7
I1
ssbsg15
(iregression_tree
decision_node
p344
(dp345
g2
Nsg15
Nsg16
I-1
sg17
Nsg18
(dp346
F0.625
I3
sF0.675
I10
sF0.8
I2
sF0.775
I1
sF0.65
I4
sF0.825
I1
ssbsg16
I28
sg17
F66.0
sg18
Nsbsg15
(iregression_tree
decision_node
p347
(dp348
g2
(iregression_tree
decision_node
p349
(dp350
g2
(iregression_tree
decision_node
p351
(dp352
g2
(iregression_tree
decision_node
p353
(dp354
g2
Nsg15
Nsg16
I-1
sg17
Nsg18
(dp355
F0.75
I9
sF0.7
I14
sF0.9
I3
sF0.725
I16
sF0.675
I11
ssbsg15
(iregression_tree
decision_node
p356
(dp357
g2
Nsg15
Nsg16
I-1
sg17
Nsg18
(dp358
F0.575
I6
sF0.65
I11
sF0.6
I7
sF0.675
I4
ssbsg16
I0
sg17
F30.0
sg18
Nsbsg15
(iregression_tree
decision_node
p359
(dp360
g2
Nsg15
Nsg16
I-1
sg17
Nsg18
(dp361
F0.875
I5
sF0.75
I2
sF0.925
I1
sF0.675
I1
sF0.85
I7
sF0.725
I4
sF0.9
I9
sF0.575
I2
sF0.7
I3
sF0.825
I5
sF0.775
I1
ssbsg16
I21
sg17
F64.0
sg18
Nsbsg15
(iregression_tree
decision_node
p362
(dp363
g2
(iregression_tree
decision_node
p364
(dp365
g2
(iregression_tree
decision_node
p366
(dp367
g2
Nsg15
Nsg16
I-1
sg17
Nsg18
(dp368
F0.875
I11
sF0.75
I6
sF1.1
I2
sF0.8
I10
sF1.0
I2
sF0.85
I13
sF0.925
I1
sF0.775
I3
sF0.825
I10
ssbsg15
(iregression_tree
decision_node
p369
(dp370
g2
Nsg15
Nsg16
I-1
sg17
Nsg18
(dp371
F0.75
I8
sF0.7
I9
sF0.775
I7
ssbsg16
I0
sg17
F30.0
sg18
Nsbsg15
(iregression_tree
decision_node
p372
(dp373
g2
Nsg15
Nsg16
I-1
sg17
Nsg18
(dp374
F0.75
I1
sF1.0
I15
sF0.925
I1
sF1.1
I3
sF0.9
I2
sF0.85
I1
sF0.775
I1
sF0.7
I2
sF0.825
I3
sF0.875
I3
ssbsg16
I21
sg17
F63.0
sg18
Nsbsg16
I29
sg17
F69.0
sg18
Nsbsg16
I28
sg17
F67.0
sg18
Nsbsg16
I4
sg17
F62.0
sg18
Nsbsg16
I25
sg17
F55.0
sg18
Nsbsg16
I29
sg17
F68.0
sg18
Nsbsg15
(iregression_tree
decision_node
p375
(dp376
g2
(iregression_tree
decision_node
p377
(dp378
g2
(iregression_tree
decision_node
p379
(dp380
g2
(iregression_tree
decision_node
p381
(dp382
g2
Nsg15
Nsg16
I-1
sg17
Nsg18
(dp383
F0.375
I7
sF0.35
I2
sF0.3
I10
sF0.4
I3
sF0.5
I1
ssbsg15
(iregression_tree
decision_node
p384
(dp385
g2
Nsg15
Nsg16
I-1
sg17
Nsg18
(dp386
F0.5
I5
sF0.475
I2
sF0.525
I5
sF0.425
I8
sF0.4
I3
ssbsg16
I5
sg17
F48.0
sg18
Nsbsg15
(iregression_tree
decision_node
p387
(dp388
g2
(iregression_tree
decision_node
p389
(dp390
g2
Nsg15
Nsg16
I-1
sg17
Nsg18
(dp391
F0.5
I3
sF0.45
I4
sF0.0
I1
sF0.425
I5
sF0.6
I3
sF0.525
I12
sF0.575
I2
ssbsg15
(iregression_tree
decision_node
p392
(dp393
g2
(iregression_tree
decision_node
p394
(dp395
g2
Nsg15
Nsg16
I-1
sg17
Nsg18
(dp396
F0.6
I8
sF0.8
I4
sF0.725
I1
sF0.85
I1
sF0.525
I2
sF0.7
I5
ssbsg15
(iregression_tree
decision_node
p397
(dp398
g2
Nsg15
Nsg16
I-1
sg17
Nsg18
(dp399
F0.45
I1
sF0.675
I1
sF0.425
I1
sF0.6
I9
sF0.525
I3
sF0.575
I6
ssbsg16
I25
sg17
F63.0
sg18
Nsbsg16
I19
sg17
F54.0
sg18
Nsbsg16
I28
sg17
F67.0
sg18
Nsbsg15
(iregression_tree
decision_node
p400
(dp401
g2
(iregression_tree
decision_node
p402
(dp403
g2
(iregression_tree
decision_node
p404
(dp405
g2
Nsg15
Nsg16
I-1
sg17
Nsg18
(dp406
F0.375
I3
sF0.4
I8
sF0.3
I4
sF0.325
I4
sF0.475
I1
sF0.35
I7
sF0.28
I2
ssbsg15
(iregression_tree
decision_node
p407
(dp408
g2
Nsg15
Nsg16
I-1
sg17
Nsg18
(dp409
F0.25
I4
sF0.0
I1
sF0.18
I5
sF0.29
I2
sF0.4
I2
sF0.2
I6
sF0.13
I5
sF0.3
I6
sF0.22
I8
sF0.15
I3
sF0.12
I2
sF0.27
I4
sF0.325
I7
sF0.26
I6
sF0.21
I2
sF0.35
I1
sF0.23
I13
sF0.16
I8
sF0.375
I3
ssbsg16
I25
sg17
F44.0
sg18
Nsbsg15
(iregression_tree
decision_node
p410
(dp411
g2
(iregression_tree
decision_node
p412
(dp413
g2
Nsg15
Nsg16
I-1
sg17
Nsg18
(dp414
F0.375
I1
sF0.65
I2
sF0.55
I4
sF0.45
I8
sF0.525
I4
sF0.575
I2
sF0.475
I4
sF0.625
I2
ssbsg15
(iregression_tree
decision_node
p415
(dp416
g2
(iregression_tree
decision_node
p417
(dp418
g2
Nsg15
Nsg16
I-1
sg17
Nsg18
(dp419
F0.0
I1
sF0.25
I8
sF0.4
I1
sF0.425
I2
sF0.3
I1
sF0.27
I5
sF0.325
I3
sF0.21
I1
sF0.35
I1
ssbsg15
(iregression_tree
decision_node
p420
(dp421
g2
Nsg15
Nsg16
I-1
sg17
Nsg18
(dp422
F0.375
I1
sF0.25
I3
sF0.4
I1
sF0.55
I1
sF0.425
I8
sF0.3
I3
sF0.27
I3
sF0.23
I1
ssbsg16
I22
sg17
F66.0
sg18
Nsbsg16
I25
sg17
F60.0
sg18
Nsbsg16
I28
sg17
F68.0
sg18
Nsbsg16
I0
sg17
F33.0
sg18
Nsbsg16
I0
sg17
F32.0
sg18
Nsbsg15
(iregression_tree
decision_node
p423
(dp424
g2
(iregression_tree
decision_node
p425
(dp426
g2
(iregression_tree
decision_node
p427
(dp428
g2
(iregression_tree
decision_node
p429
(dp430
g2
(iregression_tree
decision_node
p431
(dp432
g2
(iregression_tree
decision_node
p433
(dp434
g2
(iregression_tree
decision_node
p435
(dp436
g2
Nsg15
Nsg16
I-1
sg17
Nsg18
(dp437
F0.0
I4
sF0.625
I14
sF0.675
I4
sF0.6
I5
sF0.65
I8
sF0.7
I2
sF0.75
I1
ssbsg15
(iregression_tree
decision_node
p438
(dp439
g2
(iregression_tree
decision_node
p440
(dp441
g2
Nsg15
Nsg16
I-1
sg17
Nsg18
(dp442
F0.625
I6
sF0.75
I1
sF0.675
I5
sF0.6
I3
sF0.725
I2
sF0.65
I7
sF0.775
I1
ssbsg15
(iregression_tree
decision_node
p443
(dp444
g2
Nsg15
Nsg16
I-1
sg17
Nsg18
(dp445
F0.75
I34
sF0.625
I1
sF0.8
I5
sF0.725
I12
sF0.775
I9
sF0.825
I1
sF0.7
I8
ssbsg16
I20
sg17
F55.0
sg18
Nsbsg16
I19
sg17
F45.0
sg18
Nsbsg15
(iregression_tree
decision_node
p446
(dp447
g2
(iregression_tree
decision_node
p448
(dp449
g2
Nsg15
Nsg16
I-1
sg17
Nsg18
(dp450
F0.875
I17
sF0.825
I2
sF0.9
I11
sF0.85
I15
sF0.925
I3
ssbsg15
(iregression_tree
decision_node
p451
(dp452
g2
Nsg15
Nsg16
I-1
sg17
Nsg18
(dp453
F0.75
I21
sF0.875
I3
sF0.85
I4
sF0.675
I3
sF0.9
I1
sF0.725
I26
sF0.775
I13
sF0.825
I2
sF0.7
I32
ssbsg16
I24
sg17
F60.0
sg18
Nsbsg16
I28
sg17
F66.0
sg18
Nsbsg15
(iregression_tree
decision_node
p454
(dp455
g2
(iregression_tree
decision_node
p456
(dp457
g2
(iregression_tree
decision_node
p458
(dp459
g2
Nsg15
Nsg16
I-1
sg17
Nsg18
(dp460
F0.875
I10
sF0.925
I4
sF0.85
I15
sF0.9
I4
sF0.825
I1
sF0.95
I6
ssbsg15
(iregression_tree
decision_node
p461
(dp462
g2
Nsg15
Nsg16
I-1
sg17
Nsg18
(dp463
F0.95
I9
sF0.975
I1
sF0.925
I1
sF1.1
I2
sF1.0
I29
ssbsg16
I28
sg17
F66.0
sg18
Nsbsg15
(iregression_tree
decision_node
p464
(dp465
g2
(iregression_tree
decision_node
p466
(dp467
g2
Nsg15
Nsg16
I-1
sg17
Nsg18
(dp468
F0.875
I4
sF0.75
I9
sF0.8
I2
sF0.775
I9
sF0.725
I5
sF0.9
I3
sF0.825
I8
sF0.7
I8
ssbsg15
(iregression_tree
decision_node
p469
(dp470
g2
(iregression_tree
decision_node
p471
(dp472
g2
Nsg15
Nsg16
I-1
sg17
Nsg18
(dp473
F0.875
I6
sF1.0
I2
sF0.925
I6
sF0.975
I4
sF0.85
I8
sF0.9
I1
sF0.825
I5
ssbsg15
(iregression_tree
decision_node
p474
(dp475
g2
Nsg15
Nsg16
I-1
sg17
Nsg18
(dp476
F0.875
I3
sF0.0
I1
sF0.8
I2
sF1.0
I1
sF0.9
I2
sF0.85
I5
sF0.775
I2
sF0.825
I5
sF0.95
I1
ssbsg16
I3
sg17
F60.0
sg18
Nsbsg16
I28
sg17
F66.0
sg18
Nsbsg16
I25
sg17
F55.0
sg18
Nsbsg16
I29
sg17
F74.0
sg18
Nsbsg15
(iregression_tree
decision_node
p477
(dp478
g2
(iregression_tree
decision_node
p479
(dp480
g2
(iregression_tree
decision_node
p481
(dp482
g2
Nsg15
Nsg16
I-1
sg17
Nsg18
(dp483
F1.0
I37
sF1.1
I6
sF0.975
I14
sF0.9
I1
sF0.825
I2
sF0.95
I14
ssbsg15
(iregression_tree
decision_node
p484
(dp485
g2
Nsg15
Nsg16
I-1
sg17
Nsg18
(dp486
F0.9
I3
sF1.2
I11
sF1.1
I29
ssbsg16
I29
sg17
F74.0
sg18
Nsbsg15
(iregression_tree
decision_node
p487
(dp488
g2
(iregression_tree
decision_node
p489
(dp490
g2
(iregression_tree
decision_node
p491
(dp492
g2
(iregression_tree
decision_node
p493
(dp494
g2
Nsg15
Nsg16
I-1
sg17
Nsg18
(dp495
F0.875
I7
sF0.8
I3
sF0.775
I3
sF0.85
I7
sF0.9
I5
sF0.825
I9
ssbsg15
(iregression_tree
decision_node
p496
(dp497
g2
Nsg15
Nsg16
I-1
sg17
Nsg18
(dp498
F0.875
I2
sF0.0
I2
sF0.8
I7
sF0.9
I1
sF0.85
I1
sF0.775
I4
sF0.825
I5
ssbsg16
I4
sg17
F63.0
sg18
Nsbsg15
(iregression_tree
decision_node
p499
(dp500
g2
Nsg15
Nsg16
I-1
sg17
Nsg18
(dp501
F0.875
I6
sF1.0
I4
sF0.925
I1
sF0.8
I4
sF0.975
I3
sF0.85
I3
sF0.9
I5
sF0.95
I3
sF0.825
I7
ssbsg16
I22
sg17
F61.0
sg18
Nsbsg15
(iregression_tree
decision_node
p502
(dp503
g2
(iregression_tree
decision_node
p504
(dp505
g2
Nsg15
Nsg16
I-1
sg17
Nsg18
(dp506
F1.0
I2
sF0.9
I13
sF0.975
I5
sF0.925
I9
ssbsg15
(iregression_tree
decision_node
p507
(dp508
g2
Nsg15
Nsg16
I-1
sg17
Nsg18
(dp509
F1.0
I6
sF0.9
I3
sF0.975
I5
sF1.1
I10
sF0.925
I3
ssbsg16
I21
sg17
F57.0
sg18
Nsbsg16
I29
sg17
F74.0
sg18
Nsbsg16
I24
sg17
F63.0
sg18
Nsbsg16
I28
sg17
F67.0
sg18
Nsbsg15
(iregression_tree
decision_node
p510
(dp511
g2
(iregression_tree
decision_node
p512
(dp513
g2
(iregression_tree
decision_node
p514
(dp515
g2
(iregression_tree
decision_node
p516
(dp517
g2
(iregression_tree
decision_node
p518
(dp519
g2
Nsg15
Nsg16
I-1
sg17
Nsg18
(dp520
F1.0
I4
sF1.2
I38
sF1.1
I7
ssbsg15
(iregression_tree
decision_node
p521
(dp522
g2
Nsg15
Nsg16
I-1
sg17
Nsg18
(dp523
F1.3
I27
sF1.2
I4
sF1.1
I3
ssbsg16
I29
sg17
F75.0
sg18
Nsbsg15
(iregression_tree
decision_node
p524
(dp525
g2
Nsg15
Nsg16
I-1
sg17
Nsg18
(dp526
F0.0
I2
sF1.0
I2
sF1.1
I21
sF0.925
I4
sF0.975
I1
sF1.2
I5
sF0.9
I1
ssbsg16
I0
sg17
F25.0
sg18
Nsbsg15
(iregression_tree
decision_node
p527
(dp528
g2
(iregression_tree
decision_node
p529
(dp530
g2
(iregression_tree
decision_node
p531
(dp532
g2
Nsg15
Nsg16
I-1
sg17
Nsg18
(dp533
F0.95
I1
sF1.3
I2
sF1.2
I25
ssbsg15
(iregression_tree
decision_node
p534
(dp535
g2
Nsg15
Nsg16
I-1
sg17
Nsg18
(dp536
F1.4
I5
sF1.3
I30
sF1.1
I2
ssbsg16
I29
sg17
F71.0
sg18
Nsbsg15
(iregression_tree
decision_node
p537
(dp538
g2
(iregression_tree
decision_node
p539
(dp540
g2
Nsg15
Nsg16
I-1
sg17
Nsg18
(dp541
F1.5
I15
sF1.4
I7
ssbsg15
(iregression_tree
decision_node
p542
(dp543
g2
Nsg15
Nsg16
I-1
sg17
Nsg18
(dp544
F1.5
I4
sF1.4
I18
sF1.3
I2
sF1.2
I3
ssbsg16
I13
sg17
F64.0
sg18
Nsbsg16
I29
sg17
F74.0
sg18
Nsbsg16
I28
sg17
F69.0
sg18
Nsbsg15
(iregression_tree
decision_node
p545
(dp546
g2
(iregression_tree
decision_node
p547
(dp548
g2
(iregression_tree
decision_node
p549
(dp550
g2
(iregression_tree
decision_node
p551
(dp552
g2
(iregression_tree
decision_node
p553
(dp554
g2
Nsg15
Nsg16
I-1
sg17
Nsg18
(dp555
F0.95
I6
sF0.9
I2
sF0.975
I7
sF0.925
I6
sF1.1
I4
ssbsg15
(iregression_tree
decision_node
p556
(dp557
g2
Nsg15
Nsg16
I-1
sg17
Nsg18
(dp558
F0.875
I6
sF0.925
I4
sF1.1
I1
sF0.85
I3
sF0.9
I6
sF0.95
I3
ssbsg16
I0
sg17
F26.0
sg18
Nsbsg15
(iregression_tree
decision_node
p559
(dp560
g2
Nsg15
Nsg16
I-1
sg17
Nsg18
(dp561
F1.0
I25
sF0.975
I3
sF1.2
I2
sF1.1
I12
ssbsg16
I29
sg17
F73.0
sg18
Nsbsg15
(iregression_tree
decision_node
p562
(dp563
g2
Nsg15
Nsg16
I-1
sg17
Nsg18
(dp564
F0.0
I5
sF1.0
I3
sF0.925
I1
sF1.1
I5
sF0.975
I1
sF1.2
I1
sF0.9
I4
sF0.875
I3
ssbsg16
I22
sg17
F64.0
sg18
Nsbsg15
(iregression_tree
decision_node
p565
(dp566
g2
(iregression_tree
decision_node
p567
(dp568
g2
Nsg15
Nsg16
I-1
sg17
Nsg18
(dp569
F1.0
I1
sF1.3
I4
sF1.2
I29
sF1.1
I7
ssbsg15
(iregression_tree
decision_node
p570
(dp571
g2
(iregression_tree
decision_node
p572
(dp573
g2
(iregression_tree
decision_node
p574
(dp575
g2
Nsg15
Nsg16
I-1
sg17
Nsg18
(dp576
F0.0
I1
sF1.0
I11
sF1.2
I2
sF1.1
I14
ssbsg15
(iregression_tree
decision_node
p577
(dp578
g2
Nsg15
Nsg16
I-1
sg17
Nsg18
(dp579
F1.0
I3
sF1.3
I1
sF1.2
I11
sF1.1
I22
ssbsg16
I18
sg17
F72.0
sg18
Nsbsg15
(iregression_tree
decision_node
p580
(dp581
g2
Nsg15
Nsg16
I-1
sg17
Nsg18
(dp582
F1.0
I18
sF0.975
I5
sF1.1
I1
sF0.95
I2
ssbsg16
I0
sg17
F27.0
sg18
Nsbsg16
I0
sg17
F25.0
sg18
Nsbsg16
I28
sg17
F69.0
sg18
Nsbsg16
I25
sg17
F62.0
sg18
Nsbsg16
I28
sg17
F68.0
sg18
Nsbsg15
(iregression_tree
decision_node
p583
(dp584
g2
(iregression_tree
decision_node
p585
(dp586
g2
(iregression_tree
decision_node
p587
(dp588
g2
(iregression_tree
decision_node
p589
(dp590
g2
(iregression_tree
decision_node
p591
(dp592
g2
Nsg15
Nsg16
I-1
sg17
Nsg18
(dp593
F1.0
I4
sF1.1
I8
sF0.975
I13
sF0.85
I1
sF0.9
I3
sF0.95
I8
ssbsg15
(iregression_tree
decision_node
p594
(dp595
g2
Nsg15
Nsg16
I-1
sg17
Nsg18
(dp596
F1.0
I2
sF1.1
I17
sF0.925
I1
sF1.2
I3
sF0.975
I1
sF0.95
I1
ssbsg16
I19
sg17
F57.0
sg18
Nsbsg15
(iregression_tree
decision_node
p597
(dp598
g2
(iregression_tree
decision_node
p599
(dp600
g2
(iregression_tree
decision_node
p601
(dp602
g2
Nsg15
Nsg16
I-1
sg17
Nsg18
(dp603
F1.2
I13
sF1.1
I8
ssbsg15
(iregression_tree
decision_node
p604
(dp605
g2
Nsg15
Nsg16
I-1
sg17
Nsg18
(dp606
F1.0
I6
sF1.2
I1
sF1.1
I16
ssbsg16
I18
sg17
F64.0
sg18
Nsbsg15
(iregression_tree
decision_node
p607
(dp608
g2
(iregression_tree
decision_node
p609
(dp610
g2
Nsg15
Nsg16
I-1
sg17
Nsg18
(dp611
F1.3
I1
sF1.2
I13
sF1.1
I11
ssbsg15
(iregression_tree
decision_node
p612
(dp613
g2
Nsg15
Nsg16
I-1
sg17
Nsg18
(dp614
F1.4
I13
sF1.3
I5
sF1.2
I3
ssbsg16
I29
sg17
F80.0
sg18
Nsbsg16
I28
sg17
F66.0
sg18
Nsbsg16
I29
sg17
F79.0
sg18
Nsbsg15
(iregression_tree
decision_node
p615
(dp616
g2
(iregression_tree
decision_node
p617
(dp618
g2
(iregression_tree
decision_node
p619
(dp620
g2
Nsg15
Nsg16
I-1
sg17
Nsg18
(dp621
F1.4
I5
sF1.3
I20
sF1.2
I1
ssbsg15
(iregression_tree
decision_node
p622
(dp623
g2
Nsg15
Nsg16
I-1
sg17
Nsg18
(dp624
F1.0
I1
sF1.3
I1
sF1.2
I11
sF1.1
I8
ssbsg16
I23
sg17
F55.0
sg18
Nsbsg15
(iregression_tree
decision_node
p625
(dp626
g2
Nsg15
Nsg16
I-1
sg17
Nsg18
(dp627
F1.5
I8
sF1.4
I1
sF1.3
I3
sF1.7
I6
sF1.6
I4
ssbsg16
I29
sg17
F80.0
sg18
Nsbsg16
I28
sg17
F67.0
sg18
Nsbsg15
(iregression_tree
decision_node
p628
(dp629
g2
(iregression_tree
decision_node
p630
(dp631
g2
(iregression_tree
decision_node
p632
(dp633
g2
Nsg15
Nsg16
I-1
sg17
Nsg18
(dp634
F1.5
I4
sF2.0
I3
sF1.6
I3
sF1.3
I1
sF1.7
I4
sF1.8
I7
sF1.4
I3
sF1.9
I5
ssbsg15
(iregression_tree
decision_node
p635
(dp636
g2
(iregression_tree
decision_node
p637
(dp638
g2
(iregression_tree
decision_node
p639
(dp640
g2
Nsg15
Nsg16
I-1
sg17
Nsg18
(dp641
F1.5
I7
sF1.7
I1
sF1.6
I6
sF1.8
I4
sF1.2
I1
sF1.3
I12
sF1.4
I9
ssbsg15
(iregression_tree
decision_node
p642
(dp643
g2
Nsg15
Nsg16
I-1
sg17
Nsg18
(dp644
F1.5
I5
sF0.0
I3
sF1.6
I6
sF1.2
I6
sF1.3
I6
sF1.4
I7
ssbsg16
I3
sg17
F60.0
sg18
Nsbsg15
(iregression_tree
decision_node
p645
(dp646
g2
(iregression_tree
decision_node
p647
(dp648
g2
Nsg15
Nsg16
I-1
sg17
Nsg18
(dp649
F1.5
I11
sF1.4
I2
sF1.3
I2
sF1.7
I1
sF1.6
I10
ssbsg15
(iregression_tree
decision_node
p650
(dp651
g2
Nsg15
Nsg16
I-1
sg17
Nsg18
(dp652
F1.5
I5
sF1.9
I2
sF1.8
I1
sF1.7
I10
sF1.6
I9
ssbsg16
I29
sg17
F79.0
sg18
Nsbsg16
I6
sg17
F69.0
sg18
Nsbsg16
I13
sg17
F60.0
sg18
Nsbsg15
(iregression_tree
decision_node
p653
(dp654
g2
Nsg15
Nsg16
I-1
sg17
Nsg18
(dp655
F2.0
I5
sF1.6
I1
sF1.8
I2
sF1.7
I2
sF2.1
I4
sF1.9
I5
sF2.3
I2
ssbsg16
I29
sg17
F83.0
sg18
Nsbsg16
I28
sg17
F68.0
sg18
Nsbsg16
I29
sg17
F77.0
sg18
Nsbsg16
I29
sg17
F70.0
sg18
Nsbsg16
I28
sg17
F65.0
sg18
Nsbsg15
(iregression_tree
decision_node
p656
(dp657
g2
(iregression_tree
decision_node
p658
(dp659
g2
Nsg15
Nsg16
I-1
sg17
Nsg18
(dp660
F0.2
I1
sF0.1
I2
sF0.22
I2
sF0.3
I1
sF0.12
I1
sF0.19
I1
sF0.24
I2
sF0.35
I1
sF120.0
I1
sF20.0
I4
sF0.07
I4
sF30.0
I1
ssbsg15
(iregression_tree
decision_node
p661
(dp662
g2
(iregression_tree
decision_node
p663
(dp664
g2
Nsg15
Nsg16
I-1
sg17
Nsg18
(dp665
F0.0
I2
sF0.09
I1
sF0.1
I2
sF0.05
I5
sF0.24
I1
sF0.06
I7
sF0.07
I1
sF0.04
I2
ssbsg15
(iregression_tree
decision_node
p666
(dp667
g2
Nsg15
Nsg16
I-1
sg17
Nsg18
(dp668
F0.375
I4
sF0.13
I4
sF0.3
I3
sF0.27
I1
sF0.325
I3
sF0.26
I3
sF0.28
I1
sF0.16
I2
ssbsg16
I20
sg17
F61.0
sg18
Nsbsg16
I16
sg17
F65.0
sg18
Nsbsg16
I0
sg17
F36.0
sg18
Nsbsg15
(iregression_tree
decision_node
p669
(dp670
g2
(iregression_tree
decision_node
p671
(dp672
g2
Nsg15
Nsg16
I-1
sg17
Nsg18
(dp673
F0.75
I1
sF1.3
I2
sF0.725
I2
sF3.7
I2
sF2.2
I1
sF1.6
I3
sF0.325
I1
sF0.625
I2
sF0.425
I1
sF2.7
I2
sF0.24
I1
sF2.1
I3
sF0.95
I1
sF120.0
I3
sF2.3
I1
sF2.8
I1
sF0.55
I1
sF2.4
I1
sF0.16
I1
sF2.5
I1
ssbsg15
(iregression_tree
decision_node
p674
(dp675
g2
(iregression_tree
decision_node
p676
(dp677
g2
(iregression_tree
decision_node
p678
(dp679
g2
(iregression_tree
decision_node
p680
(dp681
g2
(iregression_tree
decision_node
p682
(dp683
g2
(iregression_tree
decision_node
p684
(dp685
g2
(iregression_tree
decision_node
p686
(dp687
g2
Nsg15
Nsg16
I-1
sg17
Nsg18
(dp688
F1.5
I9
sF1.4
I21
sF1.3
I8
sF1.7
I1
ssbsg15
(iregression_tree
decision_node
p689
(dp690
g2
(iregression_tree
decision_node
p691
(dp692
g2
Nsg15
Nsg16
I-1
sg17
Nsg18
(dp693
F1.2
I12
sF1.3
I11
sF0.975
I1
sF1.0
I4
ssbsg15
(iregression_tree
decision_node
p694
(dp695
g2
Nsg15
Nsg16
I-1
sg17
Nsg18
(dp696
F0.0
I3
sF1.0
I5
sF1.3
I6
sF0.975
I4
sF1.2
I3
ssbsg16
I14
sg17
F66.0
sg18
Nsbsg16
I0
sg17
F30.0
sg18
Nsbsg15
(iregression_tree
decision_node
p697
(dp698
g2
(iregression_tree
decision_node
p699
(dp700
g2
(iregression_tree
decision_node
p701
(dp702
g2
Nsg15
Nsg16
I-1
sg17
Nsg18
(dp703
F1.9
I22
sF1.8
I18
ssbsg15
(iregression_tree
decision_node
p704
(dp705
g2
Nsg15
Nsg16
I-1
sg17
Nsg18
(dp706
F1.5
I6
sF1.9
I5
sF1.8
I5
sF0.0
I1
sF1.4
I4
ssbsg16
I23
sg17
F59.0
sg18
Nsbsg15
(iregression_tree
decision_node
p707
(dp708
g2
(iregression_tree
decision_node
p709
(dp710
g2
(iregression_tree
decision_node
p711
(dp712
g2
Nsg15
Nsg16
I-1
sg17
Nsg18
(dp713
F1.8
I8
sF1.7
I13
sF1.6
I2
ssbsg15
(iregression_tree
decision_node
p714
(dp715
g2
Nsg15
Nsg16
I-1
sg17
Nsg18
(dp716
F1.4
I1
sF1.3
I13
sF1.7
I5
sF1.6
I5
ssbsg16
I24
sg17
F66.0
sg18
Nsbsg15
(iregression_tree
decision_node
p717
(dp718
g2
Nsg15
Nsg16
I-1
sg17
Nsg18
(dp719
F0.0
I1
sF1.5
I4
sF1.6
I9
sF1.0
I1
sF1.2
I3
sF1.3
I4
sF1.4
I6
ssbsg16
I0
sg17
F31.0
sg18
Nsbsg16
I0
sg17
F29.0
sg18
Nsbsg16
I20
sg17
F60.0
sg18
Nsbsg15
(iregression_tree
decision_node
p720
(dp721
g2
(iregression_tree
decision_node
p722
(dp723
g2
(iregression_tree
decision_node
p724
(dp725
g2
(iregression_tree
decision_node
p726
(dp727
g2
Nsg15
Nsg16
I-1
sg17
Nsg18
(dp728
F1.9
I4
sF1.8
I12
sF1.7
I2
sF1.6
I3
ssbsg15
(iregression_tree
decision_node
p729
(dp730
g2
Nsg15
Nsg16
I-1
sg17
Nsg18
(dp731
F2.0
I2
sF1.7
I2
sF2.1
I4
sF2.4
I2
sF1.8
I5
sF1.9
I7
ssbsg16
I4
sg17
F65.0
sg18
Nsbsg15
(iregression_tree
decision_node
p732
(dp733
g2
Nsg15
Nsg16
I-1
sg17
Nsg18
(dp734
F0.0
I1
sF1.6
I12
sF1.8
I12
sF1.7
I10
sF1.3
I1
sF1.4
I5
ssbsg16
I0
sg17
F30.0
sg18
Nsbsg15
(iregression_tree
decision_node
p735
(dp736
g2
(iregression_tree
decision_node
p737
(dp738
g2
(iregression_tree
decision_node
p739
(dp740
g2
(iregression_tree
decision_node
p741
(dp742
g2
Nsg15
Nsg16
I-1
sg17
Nsg18
(dp743
F2.5
I2
sF2.0
I3
sF2.2
I5
sF2.1
I4
sF2.4
I1
sF1.8
I3
sF1.9
I2
sF2.3
I3
ssbsg15
(iregression_tree
decision_node
p744
(dp745
g2
(iregression_tree
decision_node
p746
(dp747
g2
Nsg15
Nsg16
I-1
sg17
Nsg18
(dp748
F2.5
I5
sF2.3
I7
sF2.1
I1
sF2.4
I12
ssbsg15
(iregression_tree
decision_node
p749
(dp750
g2
Nsg15
Nsg16
I-1
sg17
Nsg18
(dp751
F2.5
I5
sF2.0
I1
sF2.2
I4
sF2.4
I5
sF2.1
I10
sF1.9
I1
sF2.3
I2
ssbsg16
I10
sg17
F70.0
sg18
Nsbsg16
I20
sg17
F67.0
sg18
Nsbsg15
(iregression_tree
decision_node
p752
(dp753
g2
Nsg15
Nsg16
I-1
sg17
Nsg18
(dp754
F1.3
I1
sF1.8
I5
sF2.0
I4
sF2.1
I15
sF1.9
I5
ssbsg16
I0
sg17
F31.0
sg18
Nsbsg15
(iregression_tree
decision_node
p755
(dp756
g2
Nsg15
Nsg16
I-1
sg17
Nsg18
(dp757
F2.0
I3
sF1.6
I2
sF2.4
I2
sF1.7
I7
sF1.8
I4
sF2.3
I1
sF1.9
I4
ssbsg16
I25
sg17
F69.0
sg18
Nsbsg16
I20
sg17
F62.0
sg18
Nsbsg16
I29
sg17
F71.0
sg18
Nsbsg15
(iregression_tree
decision_node
p758
(dp759
g2
(iregression_tree
decision_node
p760
(dp761
g2
Nsg15
Nsg16
I-1
sg17
Nsg18
(dp762
F0.75
I1
sF1.0
I5
sF0.85
I1
sF1.1
I3
sF0.55
I2
sF0.8
I1
sF1.2
I3
sF0.725
I1
sF0.925
I2
sF0.24
I1
sF0.775
I3
sF0.825
I2
sF1.4
I7
sF0.575
I1
sF0.875
I2
sF1.5
I4
ssbsg15
(iregression_tree
decision_node
p763
(dp764
g2
(iregression_tree
decision_node
p765
(dp766
g2
Nsg15
Nsg16
I-1
sg17
Nsg18
(dp767
F0.75
I1
sF0.0
I1
sF0.55
I5
sF0.675
I3
sF0.425
I1
sF0.725
I6
sF0.2
I2
sF0.24
I1
sF0.325
I3
sF0.95
I1
ssbsg15
(iregression_tree
decision_node
p768
(dp769
g2
Nsg15
Nsg16
I-1
sg17
Nsg18
(dp770
F0.5
I2
sF0.325
I1
sF0.425
I1
sF0.55
I1
sF0.675
I5
sF1.2
I2
sF0.725
I3
sF0.27
I1
sF0.9
I1
sF0.95
I3
sF0.875
I1
ssbsg16
I25
sg17
F70.0
sg18
Nsbsg16
I25
sg17
F65.0
sg18
Nsbsg16
I0
sg17
F33.0
sg18
Nsbsg15
(iregression_tree
decision_node
p771
(dp772
g2
(iregression_tree
decision_node
p773
(dp774
g2
(iregression_tree
decision_node
p775
(dp776
g2
(iregression_tree
decision_node
p777
(dp778
g2
(iregression_tree
decision_node
p779
(dp780
g2
(iregression_tree
decision_node
p781
(dp782
g2
Nsg15
Nsg16
I-1
sg17
Nsg18
(dp783
F2.2
I3
sF3.2
I1
sF3.1
I6
sF2.7
I1
sF2.1
I1
sF3.3
I3
sF2.8
I10
ssbsg15
(iregression_tree
decision_node
p784
(dp785
g2
Nsg15
Nsg16
I-1
sg17
Nsg18
(dp786
F3.0
I4
sF2.7
I3
sF3.2
I7
sF3.1
I5
sF2.8
I2
sF3.3
I15
ssbsg16
I20
sg17
F70.0
sg18
Nsbsg15
(iregression_tree
decision_node
p787
(dp788
g2
Nsg15
Nsg16
I-1
sg17
Nsg18
(dp789
F2.5
I1
sF3.0
I1
sF2.7
I3
sF2.9
I11
sF2.4
I3
sF1.8
I1
sF2.8
I12
ssbsg16
I0
sg17
F30.0
sg18
Nsbsg15
(iregression_tree
decision_node
p790
(dp791
g2
Nsg15
Nsg16
I-1
sg17
Nsg18
(dp792
F0.0
I2
sF2.5
I2
sF3.0
I7
sF3.2
I3
sF2.2
I9
sF2.4
I3
sF2.9
I1
sF2.7
I1
sF3.1
I2
sF3.3
I2
sF2.8
I4
ssbsg16
I2
sg17
F78.0
sg18
Nsbsg15
(iregression_tree
decision_node
p793
(dp794
g2
(iregression_tree
decision_node
p795
(dp796
g2
Nsg15
Nsg16
I-1
sg17
Nsg18
(dp797
F1.8
I10
sF2.1
I3
sF1.7
I10
ssbsg15
(iregression_tree
decision_node
p798
(dp799
g2
(iregression_tree
decision_node
p800
(dp801
g2
(iregression_tree
decision_node
p802
(dp803
g2
Nsg15
Nsg16
I-1
sg17
Nsg18
(dp804
F0.0
I1
sF2.5
I12
sF2.2
I6
sF2.4
I11
sF2.6
I4
sF2.3
I3
ssbsg15
(iregression_tree
decision_node
p805
(dp806
g2
Nsg15
Nsg16
I-1
sg17
Nsg18
(dp807
F2.0
I3
sF2.7
I1
sF2.2
I3
sF2.1
I6
sF1.7
I1
sF1.8
I7
sF2.3
I11
ssbsg16
I0
sg17
F30.0
sg18
Nsbsg15
(iregression_tree
decision_node
p808
(dp809
g2
Nsg15
Nsg16
I-1
sg17
Nsg18
(dp810
F2.5
I5
sF2.6
I4
sF3.0
I1
sF2.7
I4
sF2.2
I5
sF1.8
I1
sF2.9
I3
sF2.4
I3
sF3.2
I2
sF3.1
I2
sF2.1
I3
sF2.3
I1
ssbsg16
I15
sg17
F70.0
sg18
Nsbsg16
I28
sg17
F71.0
sg18
Nsbsg16
I25
sg17
F61.0
sg18
Nsbsg15
(iregression_tree
decision_node
p811
(dp812
g2
Nsg15
Nsg16
I-1
sg17
Nsg18
(dp813
F1.4
I3
sF1.0
I1
sF2.0
I7
sF1.6
I1
sF0.675
I2
sF1.8
I1
sF0.9
I1
sF0.975
I1
sF1.1
I1
sF1.3
I8
sF0.95
I6
sF1.9
I5
sF0.0
I2
ssbsg16
I0
sg17
F33.0
sg18
Nsbsg16
I29
sg17
F72.0
sg18
Nsbsg15
(iregression_tree
decision_node
p814
(dp815
g2
(iregression_tree
decision_node
p816
(dp817
g2
(iregression_tree
decision_node
p818
(dp819
g2
(iregression_tree
decision_node
p820
(dp821
g2
(iregression_tree
decision_node
p822
(dp823
g2
(iregression_tree
decision_node
p824
(dp825
g2
(iregression_tree
decision_node
p826
(dp827
g2
(iregression_tree
decision_node
p828
(dp829
g2
Nsg15
Nsg16
I-1
sg17
Nsg18
(dp830
F2.5
I9
sF2.3
I2
sF2.6
I3
sF2.4
I9
sF2.7
I2
ssbsg15
(iregression_tree
decision_node
p831
(dp832
g2
Nsg15
Nsg16
I-1
sg17
Nsg18
(dp833
F2.5
I1
sF2.3
I11
sF2.4
I11
sF2.2
I4
ssbsg16
I0
sg17
F24.0
sg18
Nsbsg15
(iregression_tree
decision_node
p834
(dp835
g2
Nsg15
Nsg16
I-1
sg17
Nsg18
(dp836
F0.0
I1
sF2.3
I8
sF2.6
I2
sF2.4
I7
sF2.2
I11
ssbsg16
I21
sg17
F68.0
sg18
Nsbsg15
(iregression_tree
decision_node
p837
(dp838
g2
(iregression_tree
decision_node
p839
(dp840
g2
Nsg15
Nsg16
I-1
sg17
Nsg18
(dp841
F1.9
I7
sF2.0
I16
sF1.8
I11
ssbsg15
(iregression_tree
decision_node
p842
(dp843
g2
Nsg15
Nsg16
I-1
sg17
Nsg18
(dp844
F2.3
I3
sF2.0
I1
sF2.1
I12
sF2.2
I5
ssbsg16
I29
sg17
F76.0
sg18
Nsbsg16
I25
sg17
F64.0
sg18
Nsbsg15
(iregression_tree
decision_node
p845
(dp846
g2
Nsg15
Nsg16
I-1
sg17
Nsg18
(dp847
F2.5
I7
sF2.7
I6
sF2.9
I3
sF2.4
I5
sF2.3
I1
sF2.8
I7
ssbsg16
I29
sg17
F79.0
sg18
Nsbsg15
(iregression_tree
decision_node
p848
(dp849
g2
(iregression_tree
decision_node
p850
(dp851
g2
(iregression_tree
decision_node
p852
(dp853
g2
Nsg15
Nsg16
I-1
sg17
Nsg18
(dp854
F3.0
I10
sF0.0
I1
sF3.1
I3
sF2.9
I8
sF2.4
I1
ssbsg15
(iregression_tree
decision_node
p855
(dp856
g2
(iregression_tree
decision_node
p857
(dp858
g2
Nsg15
Nsg16
I-1
sg17
Nsg18
(dp859
F3.5
I4
sF3.2
I8
sF3.7
I1
sF3.4
I4
sF3.6
I3
sF3.3
I1
ssbsg15
(iregression_tree
decision_node
p860
(dp861
g2
Nsg15
Nsg16
I-1
sg17
Nsg18
(dp862
F3.3
I1
sF3.6
I1
sF3.4
I8
sF3.2
I12
ssbsg16
I22
sg17
F68.0
sg18
Nsbsg16
I29
sg17
F76.0
sg18
Nsbsg15
(iregression_tree
decision_node
p863
(dp864
g2
(iregression_tree
decision_node
p865
(dp866
g2
(iregression_tree
decision_node
p867
(dp868
g2
(iregression_tree
decision_node
p869
(dp870
g2
Nsg15
Nsg16
I-1
sg17
Nsg18
(dp871
F2.5
I8
sF2.3
I1
sF2.6
I3
sF2.2
I1
sF2.7
I9
ssbsg15
(iregression_tree
decision_node
p872
(dp873
g2
Nsg15
Nsg16
I-1
sg17
Nsg18
(dp874
F2.5
I7
sF0.0
I1
sF3.0
I1
sF2.2
I1
sF2.7
I2
sF2.4
I5
sF2.6
I6
sF2.3
I5
ssbsg16
I3
sg17
F43.0
sg18
Nsbsg15
(iregression_tree
decision_node
p875
(dp876
g2
Nsg15
Nsg16
I-1
sg17
Nsg18
(dp877
F2.5
I3
sF3.0
I1
sF2.4
I4
sF3.1
I4
sF2.9
I5
sF2.6
I3
sF2.3
I1
ssbsg16
I9
sg17
F70.0
sg18
Nsbsg15
(iregression_tree
decision_node
p878
(dp879
g2
Nsg15
Nsg16
I-1
sg17
Nsg18
(dp880
F0.0
I1
sF3.0
I6
sF2.7
I7
sF3.2
I3
sF3.4
I1
sF3.6
I1
sF3.3
I4
sF2.8
I11
ssbsg16
I29
sg17
F77.0
sg18
Nsbsg16
I25
sg17
F58.0
sg18
Nsbsg16
I28
sg17
F71.0
sg18
Nsbsg15
(iregression_tree
decision_node
p881
(dp882
g2
(iregression_tree
decision_node
p883
(dp884
g2
Nsg15
Nsg16
I-1
sg17
Nsg18
(dp885
F3.5
I1
sF2.6
I1
sF3.0
I3
sF2.9
I3
sF2.7
I4
sF3.7
I3
sF3.9
I7
sF3.4
I1
sF3.2
I2
sF3.1
I11
sF3.8
I2
sF3.3
I1
sF2.8
I1
ssbsg15
(iregression_tree
decision_node
p886
(dp887
g2
Nsg15
Nsg16
I-1
sg17
Nsg18
(dp888
F3.3
I2
sF4.2
I1
sF4.0
I4
sF5.0
I5
sF4.4
I1
sF3.6
I1
sF3.9
I2
sF3.7
I3
sF3.4
I5
sF4.7
I1
sF4.1
I4
sF3.8
I8
sF4.5
I1
ssbsg16
I28
sg17
F71.0
sg18
Nsbsg16
I29
sg17
F81.0
sg18
Nsbsg15
(iregression_tree
decision_node
p889
(dp890
g2
(iregression_tree
decision_node
p891
(dp892
g2
(iregression_tree
decision_node
p893
(dp894
g2
(iregression_tree
decision_node
p895
(dp896
g2
(iregression_tree
decision_node
p897
(dp898
g2
(iregression_tree
decision_node
p899
(dp900
g2
Nsg15
Nsg16
I-1
sg17
Nsg18
(dp901
F3.8
I7
sF3.6
I9
sF3.7
I13
ssbsg15
(iregression_tree
decision_node
p902
(dp903
g2
(iregression_tree
decision_node
p904
(dp905
g2
(iregression_tree
decision_node
p906
(dp907
g2
Nsg15
Nsg16
I-1
sg17
Nsg18
(dp908
F3.9
I2
sF4.0
I4
sF4.2
I5
sF4.8
I4
sF4.7
I3
sF3.8
I2
sF4.1
I1
ssbsg15
(iregression_tree
decision_node
p909
(dp910
g2
Nsg15
Nsg16
I-1
sg17
Nsg18
(dp911
F4.6
I1
sF4.8
I1
sF4.0
I12
sF4.3
I5
sF3.9
I7
sF4.1
I2
sF3.8
I3
ssbsg16
I9
sg17
F72.0
sg18
Nsbsg15
(iregression_tree
decision_node
p912
(dp913
g2
Nsg15
Nsg16
I-1
sg17
Nsg18
(dp914
F0.0
I2
sF4.0
I6
sF4.4
I2
sF4.7
I2
sF3.9
I6
sF4.2
I3
sF3.8
I1
sF4.1
I2
ssbsg16
I26
sg17
F4.0
sg18
Nsbsg16
I28
sg17
F73.0
sg18
Nsbsg15
(iregression_tree
decision_node
p915
(dp916
g2
(iregression_tree
decision_node
p917
(dp918
g2
(iregression_tree
decision_node
p919
(dp920
g2
Nsg15
Nsg16
I-1
sg17
Nsg18
(dp921
F4.1
I5
sF4.2
I5
sF3.9
I10
sF4.0
I4
ssbsg15
(iregression_tree
decision_node
p922
(dp923
g2
Nsg15
Nsg16
I-1
sg17
Nsg18
(dp924
F4.1
I7
sF4.2
I11
sF4.0
I1
sF3.9
I6
ssbsg16
I23
sg17
F34.0
sg18
Nsbsg15
(iregression_tree
decision_node
p925
(dp926
g2
Nsg15
Nsg16
I-1
sg17
Nsg18
(dp927
F4.8
I6
sF5.0
I18
sF4.9
I11
ssbsg16
I28
sg17
F73.0
sg18
Nsbsg16
I29
sg17
F75.0
sg18
Nsbsg15
(iregression_tree
decision_node
p928
(dp929
g2
(iregression_tree
decision_node
p930
(dp931
g2
(iregression_tree
decision_node
p932
(dp933
g2
(iregression_tree
decision_node
p934
(dp935
g2
Nsg15
Nsg16
I-1
sg17
Nsg18
(dp936
F3.5
I3
sF3.0
I5
sF3.2
I3
sF3.4
I7
sF2.9
I3
sF3.1
I10
ssbsg15
(iregression_tree
decision_node
p937
(dp938
g2
Nsg15
Nsg16
I-1
sg17
Nsg18
(dp939
F3.0
I13
sF3.2
I3
sF2.9
I6
sF3.4
I1
sF3.1
I3
sF2.8
I2
ssbsg16
I20
sg17
F61.0
sg18
Nsbsg15
(iregression_tree
decision_node
p940
(dp941
g2
Nsg15
Nsg16
I-1
sg17
Nsg18
(dp942
F3.5
I2
sF3.0
I5
sF4.0
I2
sF3.7
I1
sF3.2
I8
sF3.6
I2
sF3.1
I6
sF4.1
I1
sF3.8
I2
ssbsg16
I22
sg17
F71.0
sg18
Nsbsg15
(iregression_tree
decision_node
p943
(dp944
g2
(iregression_tree
decision_node
p945
(dp946
g2
(iregression_tree
decision_node
p947
(dp948
g2
Nsg15
Nsg16
I-1
sg17
Nsg18
(dp949
F0.0
I1
sF3.0
I1
sF3.2
I13
sF3.7
I2
sF2.9
I1
sF3.9
I1
sF3.1
I11
sF3.3
I10
ssbsg15
(iregression_tree
decision_node
p950
(dp951
g2
Nsg15
Nsg16
I-1
sg17
Nsg18
(dp952
F3.5
I13
sF3.9
I1
sF3.4
I14
sF4.2
I3
sF3.3
I1
sF4.1
I4
ssbsg16
I29
sg17
F76.0
sg18
Nsbsg15
(iregression_tree
decision_node
p953
(dp954
g2
(iregression_tree
decision_node
p955
(dp956
g2
Nsg15
Nsg16
I-1
sg17
Nsg18
(dp957
F3.8
I3
sF4.0
I6
sF4.9
I2
sF4.4
I2
sF4.3
I3
sF4.2
I4
sF4.1
I6
sF4.6
I3
ssbsg15
(iregression_tree
decision_node
p958
(dp959
g2
Nsg15
Nsg16
I-1
sg17
Nsg18
(dp960
F3.5
I1
sF4.5
I1
sF4.0
I1
sF3.7
I4
sF3.9
I9
sF3.6
I3
sF3.8
I3
ssbsg16
I0
sg17
F27.0
sg18
Nsbsg16
I28
sg17
F73.0
sg18
Nsbsg16
I29
sg17
F74.0
sg18
Nsbsg16
I25
sg17
F62.0
sg18
Nsbsg15
(iregression_tree
decision_node
p961
(dp962
g2
(iregression_tree
decision_node
p963
(dp964
g2
(iregression_tree
decision_node
p965
(dp966
g2
Nsg15
Nsg16
I-1
sg17
Nsg18
(dp967
F3.5
I2
sF3.0
I2
sF2.2
I1
sF3.2
I1
sF3.6
I6
sF3.4
I2
sF3.1
I7
ssbsg15
(iregression_tree
decision_node
p968
(dp969
g2
Nsg15
Nsg16
I-1
sg17
Nsg18
(dp970
F0.0
I2
sF2.7
I9
sF2.2
I4
sF3.4
I1
sF2.6
I6
sF2.3
I6
ssbsg16
I23
sg17
F70.0
sg18
Nsbsg15
(iregression_tree
decision_node
p971
(dp972
g2
Nsg15
Nsg16
I-1
sg17
Nsg18
(dp973
F1.5
I2
sF2.5
I1
sF2.0
I3
sF2.4
I1
sF1.1
I2
sF1.6
I3
sF1.8
I3
sF1.2
I2
sF2.1
I2
sF1.9
I4
sF2.3
I3
ssbsg16
I0
sg17
F33.0
sg18
Nsbsg16
I0
sg17
F31.0
sg18
Nsbsg15
(iregression_tree
decision_node
p974
(dp975
g2
(iregression_tree
decision_node
p976
(dp977
g2
(iregression_tree
decision_node
p978
(dp979
g2
(iregression_tree
decision_node
p980
(dp981
g2
Nsg15
Nsg16
I-1
sg17
Nsg18
(dp982
F0.0
I1
sF4.4
I2
sF3.7
I6
sF3.9
I4
sF4.3
I1
sF3.6
I9
ssbsg15
(iregression_tree
decision_node
p983
(dp984
g2
(iregression_tree
decision_node
p985
(dp986
g2
Nsg15
Nsg16
I-1
sg17
Nsg18
(dp987
F4.2
I4
sF4.3
I16
sF4.4
I7
sF3.7
I3
ssbsg15
(iregression_tree
decision_node
p988
(dp989
g2
Nsg15
Nsg16
I-1
sg17
Nsg18
(dp990
F5.5
I4
sF4.3
I1
sF4.0
I1
sF5.0
I7
sF4.9
I2
sF3.9
I1
sF4.8
I3
sF4.7
I1
sF4.1
I2
sF4.6
I16
ssbsg16
I29
sg17
F80.0
sg18
Nsbsg16
I9
sg17
F70.0
sg18
Nsbsg15
(iregression_tree
decision_node
p991
(dp992
g2
(iregression_tree
decision_node
p993
(dp994
g2
(iregression_tree
decision_node
p995
(dp996
g2
Nsg15
Nsg16
I-1
sg17
Nsg18
(dp997
F5.5
I13
sF6.0
I8
ssbsg15
(iregression_tree
decision_node
p998
(dp999
g2
Nsg15
Nsg16
I-1
sg17
Nsg18
(dp1000
F5.5
I18
sF6.0
I3
ssbsg16
I13
sg17
F71.0
sg18
Nsbsg15
(iregression_tree
decision_node
p1001
(dp1002
g2
(iregression_tree
decision_node
p1003
(dp1004
g2
Nsg15
Nsg16
I-1
sg17
Nsg18
(dp1005
F4.5
I17
sF5.5
I3
sF4.4
I1
ssbsg15
(iregression_tree
decision_node
p1006
(dp1007
g2
Nsg15
Nsg16
I-1
sg17
Nsg18
(dp1008
F5.5
I6
sF4.7
I1
sF4.8
I7
sF5.0
I7
sF4.9
I1
ssbsg16
I29
sg17
F79.0
sg18
Nsbsg16
I25
sg17
F63.0
sg18
Nsbsg16
I28
sg17
F73.0
sg18
Nsbsg15
(iregression_tree
decision_node
p1009
(dp1010
g2
Nsg15
Nsg16
I-1
sg17
Nsg18
(dp1011
F6.5
I4
sF4.5
I1
sF6.0
I6
sF7.0
I11
sF8.0
I1
sF4.8
I2
sF5.5
I1
sF7.5
I1
ssbsg16
I29
sg17
F84.0
sg18
Nsbsg16
I29
sg17
F78.0
sg18
Nsbsg16
I28
sg17
F72.0
sg18
Nsbsg16
I29
sg17
F73.0
sg18
Nsbsg16
I17
sg17
F43.0
sg18
Nsbsg16
I28
sg17
F70.0
sg18
Nsbsg15
(iregression_tree
decision_node
p1012
(dp1013
g2
(iregression_tree
decision_node
p1014
(dp1015
g2
(iregression_tree
decision_node
p1016
(dp1017
g2
(iregression_tree
decision_node
p1018
(dp1019
g2
(iregression_tree
decision_node
p1020
(dp1021
g2
(iregression_tree
decision_node
p1022
(dp1023
g2
Nsg15
Nsg16
I-1
sg17
Nsg18
(dp1024
F5.5
I6
sF4.9
I4
sF6.0
I22
sF5.0
I2
ssbsg15
(iregression_tree
decision_node
p1025
(dp1026
g2
Nsg15
Nsg16
I-1
sg17
Nsg18
(dp1027
F6.5
I25
sF7.0
I12
ssbsg16
I29
sg17
F75.0
sg18
Nsbsg15
(iregression_tree
decision_node
p1028
(dp1029
g2
(iregression_tree
decision_node
p1030
(dp1031
g2
(iregression_tree
decision_node
p1032
(dp1033
g2
(iregression_tree
decision_node
p1034
(dp1035
g2
(iregression_tree
decision_node
p1036
(dp1037
g2
Nsg15
Nsg16
I-1
sg17
Nsg18
(dp1038
F5.5
I1
sF4.4
I6
sF3.7
I1
sF4.3
I1
sF4.8
I1
sF3.2
I3
sF4.2
I5
sF4.1
I1
sF3.8
I3
sF6.0
I1
ssbsg15
(iregression_tree
decision_node
p1039
(dp1040
g2
Nsg15
Nsg16
I-1
sg17
Nsg18
(dp1041
F0.0
I4
sF5.5
I1
sF4.4
I3
sF3.1
I3
sF4.3
I1
sF4.2
I2
sF4.1
I1
sF3.8
I6
sF4.6
I1
ssbsg16
I8
sg17
F68.0
sg18
Nsbsg15
(iregression_tree
decision_node
p1042
(dp1043
g2
Nsg15
Nsg16
I-1
sg17
Nsg18
(dp1044
F4.5
I2
sF5.5
I12
sF4.3
I1
sF4.9
I1
sF4.4
I5
sF4.7
I1
sF4.8
I2
sF4.2
I1
sF4.1
I2
sF4.6
I3
sF6.0
I2
sF0.0
I2
ssbsg16
I15
sg17
F72.0
sg18
Nsbsg15
(iregression_tree
decision_node
p1045
(dp1046
g2
(iregression_tree
decision_node
p1047
(dp1048
g2
Nsg15
Nsg16
I-1
sg17
Nsg18
(dp1049
F0.0
I3
sF6.5
I1
sF6.0
I1
sF4.5
I6
sF3.7
I2
sF4.9
I10
sF5.5
I2
sF5.0
I8
ssbsg15
(iregression_tree
decision_node
p1050
(dp1051
g2
(iregression_tree
decision_node
p1052
(dp1053
g2
Nsg15
Nsg16
I-1
sg17
Nsg18
(dp1054
F5.5
I3
sF6.5
I1
sF4.4
I2
sF3.7
I2
sF4.8
I4
sF4.9
I3
sF5.0
I7
ssbsg15
(iregression_tree
decision_node
p1055
(dp1056
g2
Nsg15
Nsg16
I-1
sg17
Nsg18
(dp1057
F6.5
I1
sF5.5
I11
sF5.0
I4
sF4.4
I2
sF7.0
I2
sF4.8
I1
sF3.8
I1
ssbsg16
I16
sg17
F76.0
sg18
Nsbsg16
I12
sg17
F65.0
sg18
Nsbsg16
I29
sg17
F75.0
sg18
Nsbsg15
(iregression_tree
decision_node
p1058
(dp1059
g2
(iregression_tree
decision_node
p1060
(dp1061
g2
(iregression_tree
decision_node
p1062
(dp1063
g2
Nsg15
Nsg16
I-1
sg17
Nsg18
(dp1064
F5.5
I16
sF6.0
I3
sF4.9
I2
ssbsg15
(iregression_tree
decision_node
p1065
(dp1066
g2
Nsg15
Nsg16
I-1
sg17
Nsg18
(dp1067
F6.5
I18
sF5.5
I1
sF5.0
I4
sF6.0
I5
sF7.0
I7
ssbsg16
I29
sg17
F75.0
sg18
Nsbsg15
(iregression_tree
decision_node
p1068
(dp1069
g2
Nsg15
Nsg16
I-1
sg17
Nsg18
(dp1070
F5.5
I4
sF3.7
I1
sF6.0
I1
sF4.4
I5
sF4.3
I1
sF4.9
I2
sF5.0
I8
ssbsg16
I0
sg17
F31.0
sg18
Nsbsg16
I21
sg17
F72.0
sg18
Nsbsg16
I24
sg17
F36.0
sg18
Nsbsg15
(iregression_tree
decision_node
p1071
(dp1072
g2
(iregression_tree
decision_node
p1073
(dp1074
g2
(iregression_tree
decision_node
p1075
(dp1076
g2
(iregression_tree
decision_node
p1077
(dp1078
g2
(iregression_tree
decision_node
p1079
(dp1080
g2
Nsg15
Nsg16
I-1
sg17
Nsg18
(dp1081
F7.5
I2
sF8.5
I2
sF6.0
I3
sF6.5
I1
sF7.0
I13
sF8.0
I15
ssbsg15
(iregression_tree
decision_node
p1082
(dp1083
g2
Nsg15
Nsg16
I-1
sg17
Nsg18
(dp1084
F8.0
I19
sF9.0
I4
sF8.5
I3
ssbsg16
I28
sg17
F76.0
sg18
Nsbsg15
(iregression_tree
decision_node
p1085
(dp1086
g2
Nsg15
Nsg16
I-1
sg17
Nsg18
(dp1087
F7.5
I13
sF6.5
I1
sF0.0
I1
sF6.0
I2
sF7.0
I6
ssbsg16
I0
sg17
F29.0
sg18
Nsbsg15
(iregression_tree
decision_node
p1088
(dp1089
g2
Nsg15
Nsg16
I-1
sg17
Nsg18
(dp1090
F9.5
I7
sF6.5
I2
sF7.5
I2
sF7.0
I2
sF8.0
I5
sF9.0
I10
sF8.5
I11
ssbsg16
I28
sg17
F77.0
sg18
Nsbsg15
(iregression_tree
decision_node
p1091
(dp1092
g2
(iregression_tree
decision_node
p1093
(dp1094
g2
Nsg15
Nsg16
I-1
sg17
Nsg18
(dp1095
F5.5
I6
sF6.5
I4
sF5.0
I1
sF0.0
I4
sF7.0
I2
sF4.3
I2
sF4.4
I1
sF6.0
I4
ssbsg15
(iregression_tree
decision_node
p1096
(dp1097
g2
(iregression_tree
decision_node
p1098
(dp1099
g2
(iregression_tree
decision_node
p1100
(dp1101
g2
Nsg15
Nsg16
I-1
sg17
Nsg18
(dp1102
F6.5
I7
sF5.5
I8
sF6.0
I19
sF7.5
I2
ssbsg15
(iregression_tree
decision_node
p1103
(dp1104
g2
(iregression_tree
decision_node
p1105
(dp1106
g2
Nsg15
Nsg16
I-1
sg17
Nsg18
(dp1107
F7.5
I5
sF6.5
I5
sF8.5
I1
sF7.0
I11
sF8.0
I1
sF9.0
I2
ssbsg15
(iregression_tree
decision_node
p1108
(dp1109
g2
Nsg15
Nsg16
I-1
sg17
Nsg18
(dp1110
F6.5
I13
sF7.5
I4
sF8.5
I1
sF6.0
I7
sF7.0
I4
ssbsg16
I16
sg17
F73.0
sg18
Nsbsg16
I29
sg17
F77.0
sg18
Nsbsg15
(iregression_tree
decision_node
p1111
(dp1112
g2
Nsg15
Nsg16
I-1
sg17
Nsg18
(dp1113
F6.5
I3
sF7.5
I1
sF5.0
I12
sF6.0
I1
sF4.3
I2
sF4.4
I5
ssbsg16
I0
sg17
F31.0
sg18
Nsbsg16
I15
sg17
F59.0
sg18
Nsbsg16
I24
sg17
F72.0
sg18
Nsbsg16
I29
sg17
F76.0
sg18
Nsbsg15
(iregression_tree
decision_node
p1114
(dp1115
g2
(iregression_tree
decision_node
p1116
(dp1117
g2
Nsg15
Nsg16
I-1
sg17
Nsg18
(dp1118
F4.5
I4
sF3.5
I3
sF4.2
I1
sF3.0
I1
sF4.0
I1
sF3.2
I1
sF1.6
I2
sF4.8
I4
sF3.4
I4
sF2.0
I1
sF3.9
I2
sF4.7
I2
sF4.1
I1
sF2.8
I4
sF2.9
I1
sF5.5
I1
ssbsg15
(iregression_tree
decision_node
p1119
(dp1120
g2
(iregression_tree
decision_node
p1121
(dp1122
g2
Nsg15
Nsg16
I-1
sg17
Nsg18
(dp1123
F5.5
I1
sF0.0
I1
sF3.0
I1
sF2.7
I5
sF3.1
I3
sF3.4
I1
sF3.6
I6
sF2.3
I7
sF3.3
I1
ssbsg15
(iregression_tree
decision_node
p1124
(dp1125
g2
Nsg15
Nsg16
I-1
sg17
Nsg18
(dp1126
F0.0
I2
sF1.3
I2
sF2.0
I2
sF2.7
I3
sF1.6
I3
sF0.9
I2
sF2.1
I2
sF1.7
I6
sF2.2
I1
sF1.8
I1
sF1.9
I1
sF2.3
I2
sF0.45
I1
sF2.5
I2
ssbsg16
I0
sg17
F34.0
sg18
Nsbsg16
I25
sg17
F61.0
sg18
Nsbsg16
I0
sg17
F33.0
sg18
Nsbsg15
(iregression_tree
decision_node
p1127
(dp1128
g2
(iregression_tree
decision_node
p1129
(dp1130
g2
(iregression_tree
decision_node
p1131
(dp1132
g2
(iregression_tree
decision_node
p1133
(dp1134
g2
(iregression_tree
decision_node
p1135
(dp1136
g2
(iregression_tree
decision_node
p1137
(dp1138
g2
Nsg15
Nsg16
I-1
sg17
Nsg18
(dp1139
F7.5
I16
sF6.5
I1
sF6.0
I3
sF7.0
I3
ssbsg15
(iregression_tree
decision_node
p1140
(dp1141
g2
Nsg15
Nsg16
I-1
sg17
Nsg18
(dp1142
F8.0
I16
sF8.5
I5
sF7.5
I2
sF6.5
I1
ssbsg16
I29
sg17
F80.0
sg18
Nsbsg15
(iregression_tree
decision_node
p1143
(dp1144
g2
Nsg15
Nsg16
I-1
sg17
Nsg18
(dp1145
F6.5
I18
sF0.0
I2
sF8.0
I1
sF6.0
I8
sF7.0
I4
ssbsg16
I23
sg17
F67.0
sg18
Nsbsg15
(iregression_tree
decision_node
p1146
(dp1147
g2
(iregression_tree
decision_node
p1148
(dp1149
g2
(iregression_tree
decision_node
p1150
(dp1151
g2
Nsg15
Nsg16
I-1
sg17
Nsg18
(dp1152
F9.5
I10
sF9.0
I11
sF8.5
I16
ssbsg15
(iregression_tree
decision_node
p1153
(dp1154
g2
Nsg15
Nsg16
I-1
sg17
Nsg18
(dp1155
F10.5
I5
sF9.5
I10
sF10.0
I10
ssbsg16
I28
sg17
F76.0
sg18
Nsbsg15
(iregression_tree
decision_node
p1156
(dp1157
g2
(iregression_tree
decision_node
p1158
(dp1159
g2
Nsg15
Nsg16
I-1
sg17
Nsg18
(dp1160
F7.5
I8
sF8.0
I8
sF6.5
I1
sF8.5
I5
sF7.0
I15
ssbsg15
(iregression_tree
decision_node
p1161
(dp1162
g2
(iregression_tree
decision_node
p1163
(dp1164
g2
Nsg15
Nsg16
I-1
sg17
Nsg18
(dp1165
F8.5
I12
sF9.0
I7
sF8.0
I2
sF7.5
I1
ssbsg15
(iregression_tree
decision_node
p1166
(dp1167
g2
Nsg15
Nsg16
I-1
sg17
Nsg18
(dp1168
F7.5
I8
sF9.0
I2
sF8.5
I7
sF8.0
I10
ssbsg16
I16
sg17
F73.0
sg18
Nsbsg16
I29
sg17
F80.0
sg18
Nsbsg16
I24
sg17
F69.0
sg18
Nsbsg16
I28
sg17
F75.0
sg18
Nsbsg15
(iregression_tree
decision_node
p1169
(dp1170
g2
(iregression_tree
decision_node
p1171
(dp1172
g2
Nsg15
Nsg16
I-1
sg17
Nsg18
(dp1173
F9.5
I12
sF8.5
I8
sF7.5
I5
sF10.0
I5
sF11.0
I1
sF12.0
I2
sF10.5
I1
ssbsg15
(iregression_tree
decision_node
p1174
(dp1175
g2
(iregression_tree
decision_node
p1176
(dp1177
g2
Nsg15
Nsg16
I-1
sg17
Nsg18
(dp1178
F10.5
I6
sF9.5
I2
sF8.5
I2
sF9.0
I1
sF10.0
I7
sF11.0
I3
sF12.0
I2
ssbsg15
(iregression_tree
decision_node
p1179
(dp1180
g2
Nsg15
Nsg16
I-1
sg17
Nsg18
(dp1181
F11.5
I7
sF12.5
I2
sF13.5
I3
sF9.0
I1
sF11.0
I8
sF12.0
I3
sF10.5
I3
sF9.5
I1
ssbsg16
I28
sg17
F76.0
sg18
Nsbsg16
I9
sg17
F76.0
sg18
Nsbsg16
I29
sg17
F83.0
sg18
Nsbsg15
(iregression_tree
decision_node
p1182
(dp1183
g2
(iregression_tree
decision_node
p1184
(dp1185
g2
(iregression_tree
decision_node
p1186
(dp1187
g2
(iregression_tree
decision_node
p1188
(dp1189
g2
(iregression_tree
decision_node
p1190
(dp1191
g2
Nsg15
Nsg16
I-1
sg17
Nsg18
(dp1192
F10.5
I16
sF9.5
I1
sF10.0
I7
sF11.0
I2
sF9.0
I1
ssbsg15
(iregression_tree
decision_node
p1193
(dp1194
g2
(iregression_tree
decision_node
p1195
(dp1196
g2
Nsg15
Nsg16
I-1
sg17
Nsg18
(dp1197
F12.5
I11
sF15.5
I1
sF13.5
I3
sF11.0
I4
sF12.0
I4
sF13.0
I8
sF11.5
I3
ssbsg15
(iregression_tree
decision_node
p1198
(dp1199
g2
Nsg15
Nsg16
I-1
sg17
Nsg18
(dp1200
F15.5
I3
sF13.5
I5
sF14.5
I3
sF12.0
I5
sF13.0
I4
sF15.0
I5
sF16.0
I2
sF11.5
I2
ssbsg16
I5
sg17
F73.0
sg18
Nsbsg16
I29
sg17
F79.0
sg18
Nsbsg15
(iregression_tree
decision_node
p1201
(dp1202
g2
(iregression_tree
decision_node
p1203
(dp1204
g2
(iregression_tree
decision_node
p1205
(dp1206
g2
Nsg15
Nsg16
I-1
sg17
Nsg18
(dp1207
F8.5
I10
sF7.5
I2
sF9.5
I1
sF7.0
I1
sF8.0
I5
sF9.0
I5
sF10.0
I6
sF0.0
I1
ssbsg15
(iregression_tree
decision_node
p1208
(dp1209
g2
Nsg15
Nsg16
I-1
sg17
Nsg18
(dp1210
F9.5
I7
sF10.5
I3
sF8.5
I2
sF7.0
I1
sF8.0
I1
sF9.0
I4
sF10.0
I10
sF12.0
I2
sF12.5
I1
sF7.5
I1
sF11.5
I2
ssbsg16
I22
sg17
F74.0
sg18
Nsbsg15
(iregression_tree
decision_node
p1211
(dp1212
g2
Nsg15
Nsg16
I-1
sg17
Nsg18
(dp1213
F11.5
I4
sF10.5
I7
sF12.5
I2
sF9.0
I4
sF10.0
I7
sF11.0
I2
sF12.0
I11
ssbsg16
I29
sg17
F80.0
sg18
Nsbsg16
I25
sg17
F70.0
sg18
Nsbsg15
(iregression_tree
decision_node
p1214
(dp1215
g2
Nsg15
Nsg16
I-1
sg17
Nsg18
(dp1216
F0.0
I2
sF7.5
I1
sF4.0
I1
sF6.0
I2
sF6.5
I6
sF7.0
I4
sF8.0
I4
sF9.0
I1
sF8.5
I1
sF1.7
I1
sF2.9
I1
sF3.6
I3
sF5.5
I1
sF10.0
I1
sF4.5
I2
ssbsg16
I0
sg17
F32.0
sg18
Nsbsg15
(iregression_tree
decision_node
p1217
(dp1218
g2
(iregression_tree
decision_node
p1219
(dp1220
g2
(iregression_tree
decision_node
p1221
(dp1222
g2
(iregression_tree
decision_node
p1223
(dp1224
g2
Nsg15
Nsg16
I-1
sg17
Nsg18
(dp1225
F12.5
I2
sF13.5
I3
sF14.5
I5
sF17.5
I2
sF14.0
I1
sF16.0
I1
sF15.5
I8
ssbsg15
(iregression_tree
decision_node
p1226
(dp1227
g2
(iregression_tree
decision_node
p1228
(dp1229
g2
Nsg15
Nsg16
I-1
sg17
Nsg18
(dp1230
F11.5
I2
sF13.5
I3
sF12.5
I2
sF12.0
I6
sF13.0
I8
sF14.0
I2
ssbsg15
(iregression_tree
decision_node
p1231
(dp1232
g2
Nsg15
Nsg16
I-1
sg17
Nsg18
(dp1233
F13.5
I6
sF12.0
I3
sF13.0
I1
sF14.0
I13
ssbsg16
I6
sg17
F79.0
sg18
Nsbsg16
I0
sg17
F22.0
sg18
Nsbsg15
(iregression_tree
decision_node
p1234
(dp1235
g2
(iregression_tree
decision_node
p1236
(dp1237
g2
Nsg15
Nsg16
I-1
sg17
Nsg18
(dp1238
F11.5
I4
sF10.5
I9
sF12.5
I1
sF10.0
I12
sF11.0
I2
sF12.0
I2
ssbsg15
(iregression_tree
decision_node
p1239
(dp1240
g2
Nsg15
Nsg16
I-1
sg17
Nsg18
(dp1241
F10.5
I4
sF12.5
I5
sF11.5
I4
sF11.0
I3
sF12.0
I3
sF13.0
I2
sF14.0
I2
sF13.5
I2
ssbsg16
I28
sg17
F78.0
sg18
Nsbsg16
I25
sg17
F69.0
sg18
Nsbsg15
(iregression_tree
decision_node
p1242
(dp1243
g2
(iregression_tree
decision_node
p1244
(dp1245
g2
(iregression_tree
decision_node
p1246
(dp1247
g2
Nsg15
Nsg16
I-1
sg17
Nsg18
(dp1248
F15.5
I5
sF18.5
I5
sF15.0
I2
sF16.0
I8
sF18.0
I1
sF19.0
I1
ssbsg15
(iregression_tree
decision_node
p1249
(dp1250
g2
Nsg15
Nsg16
I-1
sg17
Nsg18
(dp1251
F19.5
I6
sF17.5
I2
sF22.5
I1
sF17.0
I1
sF18.0
I7
sF19.0
I1
sF20.0
I3
sF21.0
I2
ssbsg16
I29
sg17
F84.0
sg18
Nsbsg15
(iregression_tree
decision_node
p1252
(dp1253
g2
Nsg15
Nsg16
I-1
sg17
Nsg18
(dp1254
F14.5
I7
sF15.5
I6
sF16.5
I3
sF13.5
I2
sF13.0
I1
sF19.5
I1
sF14.0
I3
sF15.0
I4
sF16.0
I5
sF12.5
I2
sF0.0
I1
sF18.5
I1
ssbsg16
I24
sg17
F75.0
sg18
Nsbsg16
I28
sg17
F79.0
sg18
Nsbsg16
I29
sg17
F81.0
sg18
Nsbsg16
I28
sg17
F77.0
sg18
Nsbsg16
I29
sg17
F78.0
sg18
Nsbsg16
I28
sg17
F74.0
sg18
Nsbsg15
(iregression_tree
decision_node
p1255
(dp1256
g2
(iregression_tree
decision_node
p1257
(dp1258
g2
(iregression_tree
decision_node
p1259
(dp1260
g2
(iregression_tree
decision_node
p1261
(dp1262
g2
Nsg15
Nsg16
I-1
sg17
Nsg18
(dp1263
F18.5
I6
sF21.5
I2
sF17.5
I3
sF22.5
I2
sF13.0
I2
sF14.0
I1
sF16.0
I1
sF17.0
I5
sF18.0
I4
sF21.0
I2
sF19.5
I1
sF16.5
I2
ssbsg15
(iregression_tree
decision_node
p1264
(dp1265
g2
Nsg15
Nsg16
I-1
sg17
Nsg18
(dp1266
F12.5
I6
sF6.5
I1
sF6.0
I1
sF8.0
I2
sF9.0
I1
sF10.0
I1
sF11.0
I1
sF4.8
I3
sF15.0
I1
sF16.0
I1
sF19.0
I1
sF20.0
I2
sF15.5
I2
ssbsg16
I0
sg17
F31.0
sg18
Nsbsg15
(iregression_tree
decision_node
p1267
(dp1268
g2
(iregression_tree
decision_node
p1269
(dp1270
g2
(iregression_tree
decision_node
p1271
(dp1272
g2
(iregression_tree
decision_node
p1273
(dp1274
g2
(iregression_tree
decision_node
p1275
(dp1276
g2
Nsg15
Nsg16
I-1
sg17
Nsg18
(dp1277
F28.5
I2
sF22.5
I4
sF32.5
I1
sF21.5
I1
sF33.0
I1
sF22.0
I3
sF23.0
I1
sF24.0
I2
sF29.0
I4
sF31.5
I1
sF31.0
I1
ssbsg15
(iregression_tree
decision_node
p1278
(dp1279
g2
Nsg15
Nsg16
I-1
sg17
Nsg18
(dp1280
F32.0
I1
sF29.5
I4
sF27.0
I1
sF30.5
I4
sF24.5
I1
sF26.5
I1
sF26.0
I3
sF31.0
I1
sF28.0
I1
sF30.0
I4
sF27.5
I1
ssbsg16
I0
sg17
F26.0
sg18
Nsbsg15
(iregression_tree
decision_node
p1281
(dp1282
g2
Nsg15
Nsg16
I-1
sg17
Nsg18
(dp1283
F15.5
I3
sF22.5
I1
sF32.5
I1
sF11.5
I1
sF23.5
I1
sF27.5
I3
sF22.0
I6
sF25.0
I4
sF26.0
I1
sF27.0
I1
sF16.5
I1
ssbsg16
I5
sg17
F78.0
sg18
Nsbsg15
(iregression_tree
decision_node
p1284
(dp1285
g2
Nsg15
Nsg16
I-1
sg17
Nsg18
(dp1286
F21.5
I1
sF18.5
I5
sF24.5
I2
sF20.5
I1
sF4.2
I1
sF22.5
I1
sF23.5
I1
sF8.0
I1
sF18.0
I2
sF19.0
I8
sF20.0
I6
sF21.0
I4
sF23.0
I1
sF26.0
I1
sF19.5
I1
ssbsg16
I23
sg17
F75.0
sg18
Nsbsg15
(iregression_tree
decision_node
p1287
(dp1288
g2
(iregression_tree
decision_node
p1289
(dp1290
g2
Nsg15
Nsg16
I-1
sg17
Nsg18
(dp1291
F24.5
I2
sF21.5
I1
sF29.5
I5
sF25.5
I3
sF21.0
I1
sF25.0
I3
sF26.0
I4
sF27.0
I2
sF31.5
I3
ssbsg15
(iregression_tree
decision_node
p1292
(dp1293
g2
Nsg15
Nsg16
I-1
sg17
Nsg18
(dp1294
F36.5
I2
sF35.5
I1
sF34.0
I9
sF35.0
I1
sF30.5
I1
sF39.0
I2
sF40.0
I2
sF42.5
I2
sF31.5
I1
ssbsg16
I28
sg17
F83.0
sg18
Nsbsg16
I29
sg17
F87.0
sg18
Nsbsg16
I29
sg17
F83.0
sg18
Nsbsg15
(iregression_tree
decision_node
p1295
(dp1296
g2
(iregression_tree
decision_node
p1297
(dp1298
g2
Nsg15
Nsg16
I-1
sg17
Nsg18
(dp1299
F15.5
I1
sF43.5
I3
sF36.5
I2
sF34.0
I2
sF37.0
I5
sF38.5
I1
sF38.0
I1
sF43.0
I1
sF44.0
I2
sF45.0
I3
sF46.0
I1
sF59.0
I2
sF52.0
I1
sF53.0
I2
sF22.0
I1
sF24.0
I1
sF57.0
I1
sF28.5
I2
sF46.5
I1
sF30.0
I2
sF37.5
I5
ssbsg15
(iregression_tree
decision_node
p1300
(dp1301
g2
Nsg15
Nsg16
I-1
sg17
Nsg18
(dp1302
F50.5
I7
sF76.5
I2
sF51.5
I2
sF67.0
I1
sF102.0
I3
sF83.5
I3
sF56.5
I1
sF44.0
I1
sF93.0
I1
sF50.0
I1
sF51.0
I4
sF55.0
I1
sF64.5
I2
sF89.0
I2
sF59.5
I1
sF60.0
I1
sF61.0
I1
sF69.5
I3
ssbsg16
I29
sg17
F89.0
sg18
Nsbsg16
I28
sg17
F85.0
sg18
Nsbsg16
I28
sg17
F81.0
sg18
Nsb.