(iregression_tree
decision_node
p0
(dp1
S'fb'
p2
(iregression_tree
decision_node
p3
(dp4
g2
(iregression_tree
decision_node
p5
(dp6
g2
(iregression_tree
decision_node
p7
(dp8
g2
(iregression_tree
decision_node
p9
(dp10
g2
(iregression_tree
decision_node
p11
(dp12
g2
(iregression_tree
decision_node
p13
(dp14
g2
(iregression_tree
decision_node
p15
(dp16
g2
(iregression_tree
decision_node
p17
(dp18
g2
(iregression_tree
decision_node
p19
(dp20
g2
(iregression_tree
decision_node
p21
(dp22
g2
(iregression_tree
decision_node
p23
(dp24
g2
NsS'tb'
p25
NsS'col'
p26
I-1
sS'value'
p27
NsS'results'
p28
(dp29
F1.0
I23
sF2.0
I3
sF3.0
I6
ssbsg25
(iregression_tree
decision_node
p30
(dp31
g2
(iregression_tree
decision_node
p32
(dp33
g2
(iregression_tree
decision_node
p34
(dp35
g2
Nsg25
Nsg26
I-1
sg27
Nsg28
(dp36
F1.0
I14
sF2.0
I7
ssbsg25
(iregression_tree
decision_node
p37
(dp38
g2
Nsg25
Nsg26
I-1
sg27
Nsg28
(dp39
F1.0
I116
ssbsg26
I18
sg27
F49.0
sg28
Nsbsg25
(iregression_tree
decision_node
p40
(dp41
g2
Nsg25
Nsg26
I-1
sg27
Nsg28
(dp42
F1.0
I19
sF2.0
I5
sF3.0
I2
ssbsg26
I18
sg27
F68.0
sg28
Nsbsg26
I2
sg27
F66.0
sg28
Nsbsg25
(iregression_tree
decision_node
p43
(dp44
g2
(iregression_tree
decision_node
p45
(dp46
g2
Nsg25
Nsg26
I-1
sg27
Nsg28
(dp47
F1.0
I232
sF2.0
I1
sF3.0
I1
ssbsg25
(iregression_tree
decision_node
p48
(dp49
g2
Nsg25
Nsg26
I-1
sg27
Nsg28
(dp50
F1.0
I24
sF2.0
I5
ssbsg26
I11
sg27
F75.0
sg28
Nsbsg26
I10
sg27
F63.0
sg28
Nsbsg25
(iregression_tree
decision_node
p51
(dp52
g2
(iregression_tree
decision_node
p53
(dp54
g2
(iregression_tree
decision_node
p55
(dp56
g2
Nsg25
Nsg26
I-1
sg27
Nsg28
(dp57
F1.0
I15
sF2.0
I6
ssbsg25
(iregression_tree
decision_node
p58
(dp59
g2
Nsg25
Nsg26
I-1
sg27
Nsg28
(dp60
F1.0
I24
ssbsg26
I9
sg27
F48.0
sg28
Nsbsg25
(iregression_tree
decision_node
p61
(dp62
g2
Nsg25
Nsg26
I-1
sg27
Nsg28
(dp63
F1.0
I17
sF2.0
I13
sF3.0
I1
sF4.0
I1
ssbsg26
I19
sg27
F40.0
sg28
Nsbsg26
I0
sg27
F20.0
sg28
Nsbsg25
(iregression_tree
decision_node
p64
(dp65
g2
(iregression_tree
decision_node
p66
(dp67
g2
Nsg25
Nsg26
I-1
sg27
Nsg28
(dp68
F1.0
I20
sF2.0
I2
ssbsg25
(iregression_tree
decision_node
p69
(dp70
g2
(iregression_tree
decision_node
p71
(dp72
g2
(iregression_tree
decision_node
p73
(dp74
g2
(iregression_tree
decision_node
p75
(dp76
g2
Nsg25
Nsg26
I-1
sg27
Nsg28
(dp77
F1.0
I9
sF2.0
I20
sF3.0
I4
ssbsg25
(iregression_tree
decision_node
p78
(dp79
g2
Nsg25
Nsg26
I-1
sg27
Nsg28
(dp80
F1.0
I16
sF2.0
I5
sF3.0
I1
ssbsg26
I8
sg27
F49.0
sg28
Nsbsg25
(iregression_tree
decision_node
p81
(dp82
g2
Nsg25
Nsg26
I-1
sg27
Nsg28
(dp83
F1.0
I9
sF2.0
I14
sF3.0
I8
sF4.0
I2
sF5.0
I1
ssbsg26
I11
sg27
F67.0
sg28
Nsbsg25
(iregression_tree
decision_node
p84
(dp85
g2
Nsg25
Nsg26
I-1
sg27
Nsg28
(dp86
F1.0
I23
sF2.0
I6
ssbsg26
I22
sg27
F51.0
sg28
Nsbsg26
I4
sg27
F36.0
sg28
Nsbsg26
I0
sg27
F21.0
sg28
Nsbsg25
(iregression_tree
decision_node
p87
(dp88
g2
(iregression_tree
decision_node
p89
(dp90
g2
(iregression_tree
decision_node
p91
(dp92
g2
(iregression_tree
decision_node
p93
(dp94
g2
(iregression_tree
decision_node
p95
(dp96
g2
(iregression_tree
decision_node
p97
(dp98
g2
(iregression_tree
decision_node
p99
(dp100
g2
(iregression_tree
decision_node
p101
(dp102
g2
Nsg25
Nsg26
I-1
sg27
Nsg28
(dp103
F1.0
I18
sF2.0
I5
ssbsg25
(iregression_tree
decision_node
p104
(dp105
g2
Nsg25
Nsg26
I-1
sg27
Nsg28
(dp106
F1.0
I10
sF2.0
I10
sF3.0
I3
sF4.0
I1
ssbsg26
I6
sg27
F57.0
sg28
Nsbsg25
(iregression_tree
decision_node
p107
(dp108
g2
(iregression_tree
decision_node
p109
(dp110
g2
(iregression_tree
decision_node
p111
(dp112
g2
Nsg25
Nsg26
I-1
sg27
Nsg28
(dp113
F1.0
I16
sF2.0
I6
sF3.0
I10
sF4.0
I3
ssbsg25
(iregression_tree
decision_node
p114
(dp115
g2
Nsg25
Nsg26
I-1
sg27
Nsg28
(dp116
F1.0
I4
sF2.0
I3
sF3.0
I8
sF4.0
I6
sF5.0
I2
ssbsg26
I13
sg27
F51.0
sg28
Nsbsg25
(iregression_tree
decision_node
p117
(dp118
g2
Nsg25
Nsg26
I-1
sg27
Nsg28
(dp119
F1.0
I15
sF2.0
I8
sF3.0
I1
ssbsg26
I20
sg27
F57.0
sg28
Nsbsg26
I29
sg27
F68.0
sg28
Nsbsg25
(iregression_tree
decision_node
p120
(dp121
g2
Nsg25
Nsg26
I-1
sg27
Nsg28
(dp122
F1.0
I3
sF2.0
I8
sF3.0
I6
sF4.0
I9
sF6.0
I2
ssbsg26
I23
sg27
F57.0
sg28
Nsbsg25
(iregression_tree
decision_node
p123
(dp124
g2
(iregression_tree
decision_node
p125
(dp126
g2
(iregression_tree
decision_node
p127
(dp128
g2
Nsg25
Nsg26
I-1
sg27
Nsg28
(dp129
F1.0
I5
sF2.0
I10
sF3.0
I5
sF6.0
I2
ssbsg25
(iregression_tree
decision_node
p130
(dp131
g2
(iregression_tree
decision_node
p132
(dp133
g2
Nsg25
Nsg26
I-1
sg27
Nsg28
(dp134
F1.0
I8
sF2.0
I11
sF3.0
I2
sF4.0
I3
ssbsg25
(iregression_tree
decision_node
p135
(dp136
g2
Nsg25
Nsg26
I-1
sg27
Nsg28
(dp137
F1.0
I17
sF2.0
I5
sF3.0
I2
ssbsg26
I10
sg27
F64.0
sg28
Nsbsg26
I2
sg27
F70.0
sg28
Nsbsg25
(iregression_tree
decision_node
p138
(dp139
g2
(iregression_tree
decision_node
p140
(dp141
g2
(iregression_tree
decision_node
p142
(dp143
g2
Nsg25
Nsg26
I-1
sg27
Nsg28
(dp144
F1.0
I10
sF2.0
I7
sF3.0
I3
sF4.0
I1
ssbsg25
(iregression_tree
decision_node
p145
(dp146
g2
Nsg25
Nsg26
I-1
sg27
Nsg28
(dp147
F1.0
I11
sF2.0
I10
ssbsg26
I18
sg27
F64.0
sg28
Nsbsg25
(iregression_tree
decision_node
p148
(dp149
g2
Nsg25
Nsg26
I-1
sg27
Nsg28
(dp150
F0.0
I3
sF1.0
I20
sF2.0
I4
sF3.0
I1
ssbsg26
I25
sg27
F24.0
sg28
Nsbsg26
I22
sg27
F48.0
sg28
Nsbsg26
I17
sg27
F55.0
sg28
Nsbsg25
(iregression_tree
decision_node
p151
(dp152
g2
(iregression_tree
decision_node
p153
(dp154
g2
(iregression_tree
decision_node
p155
(dp156
g2
(iregression_tree
decision_node
p157
(dp158
g2
Nsg25
Nsg26
I-1
sg27
Nsg28
(dp159
F1.0
I32
ssbsg25
(iregression_tree
decision_node
p160
(dp161
g2
(iregression_tree
decision_node
p162
(dp163
g2
Nsg25
Nsg26
I-1
sg27
Nsg28
(dp164
F1.0
I21
sF2.0
I2
ssbsg25
(iregression_tree
decision_node
p165
(dp166
g2
Nsg25
Nsg26
I-1
sg27
Nsg28
(dp167
F1.0
I16
sF2.0
I7
sF3.0
I1
ssbsg26
I14
sg27
F71.0
sg28
Nsbsg26
I3
sg27
F46.0
sg28
Nsbsg25
(iregression_tree
decision_node
p168
(dp169
g2
Nsg25
Nsg26
I-1
sg27
Nsg28
(dp170
F1.0
I11
sF2.0
I8
sF3.0
I2
ssbsg26
I15
sg27
F57.0
sg28
Nsbsg25
(iregression_tree
decision_node
p171
(dp172
g2
(iregression_tree
decision_node
p173
(dp174
g2
(iregression_tree
decision_node
p175
(dp176
g2
Nsg25
Nsg26
I-1
sg27
Nsg28
(dp177
F1.0
I13
sF2.0
I5
sF3.0
I7
ssbsg25
(iregression_tree
decision_node
p178
(dp179
g2
Nsg25
Nsg26
I-1
sg27
Nsg28
(dp180
F0.0
I1
sF1.0
I27
sF2.0
I9
ssbsg26
I1
sg27
F178.0
sg28
Nsbsg25
(iregression_tree
decision_node
p181
(dp182
g2
Nsg25
Nsg26
I-1
sg27
Nsg28
(dp183
F1.0
I7
sF2.0
I5
sF3.0
I5
sF4.0
I2
sF6.0
I2
sF8.0
I1
ssbsg26
I12
sg27
F66.0
sg28
Nsbsg26
I24
sg27
F53.0
sg28
Nsbsg26
I4
sg27
F57.0
sg28
Nsbsg25
(iregression_tree
decision_node
p184
(dp185
g2
(iregression_tree
decision_node
p186
(dp187
g2
Nsg25
Nsg26
I-1
sg27
Nsg28
(dp188
F1.0
I14
sF2.0
I5
sF3.0
I5
ssbsg25
(iregression_tree
decision_node
p189
(dp190
g2
Nsg25
Nsg26
I-1
sg27
Nsg28
(dp191
F1.0
I1
sF2.0
I4
sF3.0
I4
sF4.0
I11
sF6.0
I1
ssbsg26
I12
sg27
F64.0
sg28
Nsbsg26
I22
sg27
F59.0
sg28
Nsbsg25
(iregression_tree
decision_node
p192
(dp193
g2
(iregression_tree
decision_node
p194
(dp195
g2
Nsg25
Nsg26
I-1
sg27
Nsg28
(dp196
F0.0
I1
sF1.0
I12
sF2.0
I5
sF3.0
I1
sF4.0
I1
sF5.0
I1
sF6.0
I2
ssbsg25
(iregression_tree
decision_node
p197
(dp198
g2
(iregression_tree
decision_node
p199
(dp200
g2
(iregression_tree
decision_node
p201
(dp202
g2
(iregression_tree
decision_node
p203
(dp204
g2
(iregression_tree
decision_node
p205
(dp206
g2
(iregression_tree
decision_node
p207
(dp208
g2
Nsg25
Nsg26
I-1
sg27
Nsg28
(dp209
F1.0
I27
sF2.0
I3
ssbsg25
(iregression_tree
decision_node
p210
(dp211
g2
Nsg25
Nsg26
I-1
sg27
Nsg28
(dp212
F1.0
I12
sF2.0
I8
sF3.0
I2
ssbsg26
I10
sg27
F63.0
sg28
Nsbsg25
(iregression_tree
decision_node
p213
(dp214
g2
(iregression_tree
decision_node
p215
(dp216
g2
(iregression_tree
decision_node
p217
(dp218
g2
Nsg25
Nsg26
I-1
sg27
Nsg28
(dp219
F1.0
I47
ssbsg25
(iregression_tree
decision_node
p220
(dp221
g2
Nsg25
Nsg26
I-1
sg27
Nsg28
(dp222
F1.0
I14
sF2.0
I8
ssbsg26
I0
sg27
F23.0
sg28
Nsbsg25
(iregression_tree
decision_node
p223
(dp224
g2
Nsg25
Nsg26
I-1
sg27
Nsg28
(dp225
F0.0
I7
sF1.0
I25
sF2.0
I1
ssbsg26
I28
sg27
F59.0
sg28
Nsbsg26
I14
sg27
F56.0
sg28
Nsbsg25
(iregression_tree
decision_node
p226
(dp227
g2
(iregression_tree
decision_node
p228
(dp229
g2
(iregression_tree
decision_node
p230
(dp231
g2
Nsg25
Nsg26
I-1
sg27
Nsg28
(dp232
F1.0
I16
sF2.0
I16
sF3.0
I6
ssbsg25
(iregression_tree
decision_node
p233
(dp234
g2
(iregression_tree
decision_node
p235
(dp236
g2
Nsg25
Nsg26
I-1
sg27
Nsg28
(dp237
F1.0
I21
sF2.0
I2
ssbsg25
(iregression_tree
decision_node
p238
(dp239
g2
Nsg25
Nsg26
I-1
sg27
Nsg28
(dp240
F1.0
I14
sF2.0
I6
sF3.0
I1
sF4.0
I1
ssbsg26
I20
sg27
F55.0
sg28
Nsbsg26
I20
sg27
F50.0
sg28
Nsbsg25
(iregression_tree
decision_node
p241
(dp242
g2
(iregression_tree
decision_node
p243
(dp244
g2
Nsg25
Nsg26
I-1
sg27
Nsg28
(dp245
F0.0
I3
sF1.0
I18
sF2.0
I1
ssbsg25
(iregression_tree
decision_node
p246
(dp247
g2
Nsg25
Nsg26
I-1
sg27
Nsg28
(dp248
F1.0
I20
sF2.0
I4
ssbsg26
I2
sg27
F68.0
sg28
Nsbsg26
I17
sg27
F71.0
sg28
Nsbsg26
I14
sg27
F67.0
sg28
Nsbsg25
(iregression_tree
decision_node
p249
(dp250
g2
(iregression_tree
decision_node
p251
(dp252
g2
(iregression_tree
decision_node
p253
(dp254
g2
Nsg25
Nsg26
I-1
sg27
Nsg28
(dp255
F1.0
I15
sF2.0
I7
sF3.0
I3
sF4.0
I1
sF5.0
I1
ssbsg25
(iregression_tree
decision_node
p256
(dp257
g2
(iregression_tree
decision_node
p258
(dp259
g2
Nsg25
Nsg26
I-1
sg27
Nsg28
(dp260
F1.0
I18
sF2.0
I6
sF4.0
I1
ssbsg25
(iregression_tree
decision_node
p261
(dp262
g2
Nsg25
Nsg26
I-1
sg27
Nsg28
(dp263
F0.0
I2
sF1.0
I31
sF2.0
I2
ssbsg26
I15
sg27
F48.0
sg28
Nsbsg26
I2
sg27
F67.0
sg28
Nsbsg25
(iregression_tree
decision_node
p264
(dp265
g2
(iregression_tree
decision_node
p266
(dp267
g2
Nsg25
Nsg26
I-1
sg27
Nsg28
(dp268
F1.0
I14
sF2.0
I10
sF3.0
I1
ssbsg25
(iregression_tree
decision_node
p269
(dp270
g2
Nsg25
Nsg26
I-1
sg27
Nsg28
(dp271
F1.0
I6
sF2.0
I12
sF3.0
I2
sF4.0
I2
ssbsg26
I1
sg27
F183.0
sg28
Nsbsg26
I18
sg27
F61.0
sg28
Nsbsg26
I3
sg27
F53.0
sg28
Nsbsg25
(iregression_tree
decision_node
p272
(dp273
g2
(iregression_tree
decision_node
p274
(dp275
g2
Nsg25
Nsg26
I-1
sg27
Nsg28
(dp276
F1.0
I21
sF2.0
I4
sF3.0
I4
ssbsg25
(iregression_tree
decision_node
p277
(dp278
g2
Nsg25
Nsg26
I-1
sg27
Nsg28
(dp279
F1.0
I6
sF2.0
I9
sF3.0
I8
sF4.0
I1
ssbsg26
I6
sg27
F54.0
sg28
Nsbsg26
I23
sg27
F59.0
sg28
Nsbsg26
I25
sg27
F15.0
sg28
Nsbsg26
I17
sg27
F60.0
sg28
Nsbsg26
I28
sg27
F56.0
sg28
Nsbsg25
(iregression_tree
decision_node
p280
(dp281
g2
(iregression_tree
decision_node
p282
(dp283
g2
(iregression_tree
decision_node
p284
(dp285
g2
(iregression_tree
decision_node
p286
(dp287
g2
Nsg25
Nsg26
I-1
sg27
Nsg28
(dp288
F1.0
I3
sF2.0
I5
sF3.0
I7
sF4.0
I4
sF5.0
I4
sF6.0
I1
sF8.0
I3
ssbsg25
(iregression_tree
decision_node
p289
(dp290
g2
(iregression_tree
decision_node
p291
(dp292
g2
Nsg25
Nsg26
I-1
sg27
Nsg28
(dp293
F0.0
I2
sF1.0
I12
sF2.0
I9
sF4.0
I2
ssbsg25
(iregression_tree
decision_node
p294
(dp295
g2
Nsg25
Nsg26
I-1
sg27
Nsg28
(dp296
F1.0
I10
sF2.0
I9
sF3.0
I7
sF4.0
I2
sF5.0
I1
ssbsg26
I22
sg27
F54.0
sg28
Nsbsg26
I11
sg27
F66.0
sg28
Nsbsg25
(iregression_tree
decision_node
p297
(dp298
g2
(iregression_tree
decision_node
p299
(dp300
g2
(iregression_tree
decision_node
p301
(dp302
g2
Nsg25
Nsg26
I-1
sg27
Nsg28
(dp303
F1.0
I24
sF2.0
I7
sF3.0
I6
sF6.0
I2
ssbsg25
(iregression_tree
decision_node
p304
(dp305
g2
(iregression_tree
decision_node
p306
(dp307
g2
Nsg25
Nsg26
I-1
sg27
Nsg28
(dp308
F1.0
I2
sF2.0
I6
sF3.0
I4
sF4.0
I5
sF5.0
I1
sF7.0
I2
sF9.0
I1
ssbsg25
(iregression_tree
decision_node
p309
(dp310
g2
Nsg25
Nsg26
I-1
sg27
Nsg28
(dp311
F1.0
I8
sF2.0
I9
sF3.0
I7
sF4.0
I1
sF5.0
I2
ssbsg26
I15
sg27
F56.0
sg28
Nsbsg26
I7
sg27
F48.0
sg28
Nsbsg25
(iregression_tree
decision_node
p312
(dp313
g2
(iregression_tree
decision_node
p314
(dp315
g2
(iregression_tree
decision_node
p316
(dp317
g2
(iregression_tree
decision_node
p318
(dp319
g2
(iregression_tree
decision_node
p320
(dp321
g2
(iregression_tree
decision_node
p322
(dp323
g2
Nsg25
Nsg26
I-1
sg27
Nsg28
(dp324
F1.0
I15
sF2.0
I8
sF3.0
I2
ssbsg25
(iregression_tree
decision_node
p325
(dp326
g2
Nsg25
Nsg26
I-1
sg27
Nsg28
(dp327
F1.0
I6
sF2.0
I10
sF3.0
I9
sF4.0
I3
sF5.0
I1
ssbsg26
I14
sg27
F58.0
sg28
Nsbsg25
(iregression_tree
decision_node
p328
(dp329
g2
(iregression_tree
decision_node
p330
(dp331
g2
(iregression_tree
decision_node
p332
(dp333
g2
(iregression_tree
decision_node
p334
(dp335
g2
(iregression_tree
decision_node
p336
(dp337
g2
Nsg25
Nsg26
I-1
sg27
Nsg28
(dp338
F1.0
I7
sF2.0
I7
sF3.0
I6
sF4.0
I1
ssbsg25
(iregression_tree
decision_node
p339
(dp340
g2
Nsg25
Nsg26
I-1
sg27
Nsg28
(dp341
F1.0
I13
sF2.0
I8
ssbsg26
I8
sg27
F55.0
sg28
Nsbsg25
(iregression_tree
decision_node
p342
(dp343
g2
(iregression_tree
decision_node
p344
(dp345
g2
Nsg25
Nsg26
I-1
sg27
Nsg28
(dp346
F1.0
I13
sF2.0
I11
sF3.0
I1
ssbsg25
(iregression_tree
decision_node
p347
(dp348
g2
Nsg25
Nsg26
I-1
sg27
Nsg28
(dp349
F1.0
I19
sF2.0
I2
ssbsg26
I10
sg27
F70.0
sg28
Nsbsg26
I18
sg27
F61.0
sg28
Nsbsg25
(iregression_tree
decision_node
p350
(dp351
g2
Nsg25
Nsg26
I-1
sg27
Nsg28
(dp352
F1.0
I30
sF3.0
I1
ssbsg26
I19
sg27
F52.0
sg28
Nsbsg25
(iregression_tree
decision_node
p353
(dp354
g2
(iregression_tree
decision_node
p355
(dp356
g2
(iregression_tree
decision_node
p357
(dp358
g2
Nsg25
Nsg26
I-1
sg27
Nsg28
(dp359
F0.0
I1
sF1.0
I17
sF2.0
I5
sF3.0
I1
ssbsg25
(iregression_tree
decision_node
p360
(dp361
g2
Nsg25
Nsg26
I-1
sg27
Nsg28
(dp362
F1.0
I8
sF2.0
I13
sF3.0
I1
sF4.0
I1
ssbsg26
I8
sg27
F52.0
sg28
Nsbsg25
(iregression_tree
decision_node
p363
(dp364
g2
Nsg25
Nsg26
I-1
sg27
Nsg28
(dp365
F1.0
I4
sF2.0
I13
sF3.0
I3
sF4.0
I3
sF5.0
I1
ssbsg26
I15
sg27
F60.0
sg28
Nsbsg26
I13
sg27
F58.0
sg28
Nsbsg26
I3
sg27
F40.0
sg28
Nsbsg25
(iregression_tree
decision_node
p366
(dp367
g2
(iregression_tree
decision_node
p368
(dp369
g2
(iregression_tree
decision_node
p370
(dp371
g2
(iregression_tree
decision_node
p372
(dp373
g2
Nsg25
Nsg26
I-1
sg27
Nsg28
(dp374
F1.0
I12
sF2.0
I9
sF3.0
I2
sF4.0
I2
ssbsg25
(iregression_tree
decision_node
p375
(dp376
g2
(iregression_tree
decision_node
p377
(dp378
g2
Nsg25
Nsg26
I-1
sg27
Nsg28
(dp379
F1.0
I14
sF2.0
I6
sF3.0
I1
ssbsg25
(iregression_tree
decision_node
p380
(dp381
g2
Nsg25
Nsg26
I-1
sg27
Nsg28
(dp382
F1.0
I27
sF2.0
I2
ssbsg26
I17
sg27
F67.0
sg28
Nsbsg26
I8
sg27
F48.0
sg28
Nsbsg25
(iregression_tree
decision_node
p383
(dp384
g2
(iregression_tree
decision_node
p385
(dp386
g2
(iregression_tree
decision_node
p387
(dp388
g2
Nsg25
Nsg26
I-1
sg27
Nsg28
(dp389
F1.0
I5
sF2.0
I7
sF3.0
I5
sF4.0
I1
sF6.0
I3
sF8.0
I1
ssbsg25
(iregression_tree
decision_node
p390
(dp391
g2
(iregression_tree
decision_node
p392
(dp393
g2
Nsg25
Nsg26
I-1
sg27
Nsg28
(dp394
F1.0
I15
sF2.0
I13
sF3.0
I5
ssbsg25
(iregression_tree
decision_node
p395
(dp396
g2
Nsg25
Nsg26
I-1
sg27
Nsg28
(dp397
F1.0
I7
sF2.0
I11
sF3.0
I14
sF4.0
I1
ssbsg26
I1
sg27
F183.0
sg28
Nsbsg26
I17
sg27
F58.0
sg28
Nsbsg25
(iregression_tree
decision_node
p398
(dp399
g2
(iregression_tree
decision_node
p400
(dp401
g2
(iregression_tree
decision_node
p402
(dp403
g2
Nsg25
Nsg26
I-1
sg27
Nsg28
(dp404
F0.0
I1
sF1.0
I16
sF2.0
I4
sF3.0
I1
ssbsg25
(iregression_tree
decision_node
p405
(dp406
g2
(iregression_tree
decision_node
p407
(dp408
g2
(iregression_tree
decision_node
p409
(dp410
g2
(iregression_tree
decision_node
p411
(dp412
g2
(iregression_tree
decision_node
p413
(dp414
g2
Nsg25
Nsg26
I-1
sg27
Nsg28
(dp415
F1.0
I21
sF2.0
I3
sF3.0
I1
ssbsg25
(iregression_tree
decision_node
p416
(dp417
g2
(iregression_tree
decision_node
p418
(dp419
g2
(iregression_tree
decision_node
p420
(dp421
g2
Nsg25
Nsg26
I-1
sg27
Nsg28
(dp422
F1.0
I12
sF2.0
I10
sF3.0
I4
ssbsg25
(iregression_tree
decision_node
p423
(dp424
g2
Nsg25
Nsg26
I-1
sg27
Nsg28
(dp425
F1.0
I16
sF2.0
I5
ssbsg26
I13
sg27
F57.0
sg28
Nsbsg25
(iregression_tree
decision_node
p426
(dp427
g2
Nsg25
Nsg26
I-1
sg27
Nsg28
(dp428
F1.0
I4
sF2.0
I14
sF3.0
I3
ssbsg26
I22
sg27
F58.0
sg28
Nsbsg26
I16
sg27
F56.0
sg28
Nsbsg25
(iregression_tree
decision_node
p429
(dp430
g2
Nsg25
Nsg26
I-1
sg27
Nsg28
(dp431
F1.0
I9
sF2.0
I7
sF3.0
I4
sF4.0
I1
sF5.0
I1
ssbsg26
I23
sg27
F55.0
sg28
Nsbsg25
(iregression_tree
decision_node
p432
(dp433
g2
(iregression_tree
decision_node
p434
(dp435
g2
(iregression_tree
decision_node
p436
(dp437
g2
Nsg25
Nsg26
I-1
sg27
Nsg28
(dp438
F1.0
I5
sF2.0
I7
sF3.0
I12
sF4.0
I5
sF5.0
I1
ssbsg25
(iregression_tree
decision_node
p439
(dp440
g2
Nsg25
Nsg26
I-1
sg27
Nsg28
(dp441
F1.0
I8
sF2.0
I12
sF3.0
I3
ssbsg26
I5
sg27
F59.0
sg28
Nsbsg25
(iregression_tree
decision_node
p442
(dp443
g2
Nsg25
Nsg26
I-1
sg27
Nsg28
(dp444
F1.0
I11
sF2.0
I10
ssbsg26
I29
sg27
F68.0
sg28
Nsbsg26
I5
sg27
F54.0
sg28
Nsbsg25
(iregression_tree
decision_node
p445
(dp446
g2
(iregression_tree
decision_node
p447
(dp448
g2
Nsg25
Nsg26
I-1
sg27
Nsg28
(dp449
F1.0
I12
sF2.0
I13
sF3.0
I9
ssbsg25
(iregression_tree
decision_node
p450
(dp451
g2
Nsg25
Nsg26
I-1
sg27
Nsg28
(dp452
F1.0
I4
sF2.0
I10
sF3.0
I8
sF4.0
I3
sF5.0
I2
ssbsg26
I22
sg27
F57.0
sg28
Nsbsg26
I3
sg27
F60.0
sg28
Nsbsg26
I5
sg27
F37.0
sg28
Nsbsg25
(iregression_tree
decision_node
p453
(dp454
g2
(iregression_tree
decision_node
p455
(dp456
g2
Nsg25
Nsg26
I-1
sg27
Nsg28
(dp457
F0.0
I3
sF1.0
I26
sF2.0
I4
sF3.0
I1
ssbsg25
(iregression_tree
decision_node
p458
(dp459
g2
Nsg25
Nsg26
I-1
sg27
Nsg28
(dp460
F1.0
I19
sF2.0
I12
sF3.0
I2
sF4.0
I1
sF5.0
I1
ssbsg26
I29
sg27
F68.0
sg28
Nsbsg26
I8
sg27
F60.0
sg28
Nsbsg26
I11
sg27
F64.0
sg28
Nsbsg26
I6
sg27
F53.0
sg28
Nsbsg25
(iregression_tree
decision_node
p461
(dp462
g2
(iregression_tree
decision_node
p463
(dp464
g2
(iregression_tree
decision_node
p465
(dp466
g2
Nsg25
Nsg26
I-1
sg27
Nsg28
(dp467
F1.0
I8
sF2.0
I3
sF3.0
I8
sF4.0
I2
sF5.0
I3
sF7.0
I1
ssbsg25
(iregression_tree
decision_node
p468
(dp469
g2
(iregression_tree
decision_node
p470
(dp471
g2
(iregression_tree
decision_node
p472
(dp473
g2
(iregression_tree
decision_node
p474
(dp475
g2
Nsg25
Nsg26
I-1
sg27
Nsg28
(dp476
F0.0
I1
sF1.0
I12
sF2.0
I5
sF3.0
I3
sF4.0
I6
sF5.0
I1
sF6.0
I1
sF7.0
I1
ssbsg25
(iregression_tree
decision_node
p477
(dp478
g2
(iregression_tree
decision_node
p479
(dp480
g2
(iregression_tree
decision_node
p481
(dp482
g2
Nsg25
Nsg26
I-1
sg27
Nsg28
(dp483
F1.0
I6
sF2.0
I7
sF3.0
I4
sF4.0
I6
sF5.0
I2
ssbsg25
(iregression_tree
decision_node
p484
(dp485
g2
Nsg25
Nsg26
I-1
sg27
Nsg28
(dp486
F1.0
I13
sF2.0
I8
sF3.0
I2
sF4.0
I2
sF5.0
I1
ssbsg26
I6
sg27
F38.0
sg28
Nsbsg25
(iregression_tree
decision_node
p487
(dp488
g2
(iregression_tree
decision_node
p489
(dp490
g2
(iregression_tree
decision_node
p491
(dp492
g2
Nsg25
Nsg26
I-1
sg27
Nsg28
(dp493
F1.0
I28
sF2.0
I5
ssbsg25
(iregression_tree
decision_node
p494
(dp495
g2
Nsg25
Nsg26
I-1
sg27
Nsg28
(dp496
F1.0
I15
sF2.0
I10
sF3.0
I1
ssbsg26
I19
sg27
F39.0
sg28
Nsbsg25
(iregression_tree
decision_node
p497
(dp498
g2
(iregression_tree
decision_node
p499
(dp500
g2
Nsg25
Nsg26
I-1
sg27
Nsg28
(dp501
F1.0
I6
sF2.0
I11
sF3.0
I4
sF4.0
I3
ssbsg25
(iregression_tree
decision_node
p502
(dp503
g2
Nsg25
Nsg26
I-1
sg27
Nsg28
(dp504
F1.0
I15
sF2.0
I7
sF3.0
I3
ssbsg26
I10
sg27
F65.0
sg28
Nsbsg26
I11
sg27
F64.0
sg28
Nsbsg26
I10
sg27
F56.0
sg28
Nsbsg26
I15
sg27
F34.0
sg28
Nsbsg25
(iregression_tree
decision_node
p505
(dp506
g2
Nsg25
Nsg26
I-1
sg27
Nsg28
(dp507
F1.0
I9
sF2.0
I12
sF3.0
I13
sF4.0
I4
sF5.0
I2
sF9.0
I1
ssbsg26
I16
sg27
F74.0
sg28
Nsbsg25
(iregression_tree
decision_node
p508
(dp509
g2
(iregression_tree
decision_node
p510
(dp511
g2
(iregression_tree
decision_node
p512
(dp513
g2
Nsg25
Nsg26
I-1
sg27
Nsg28
(dp514
F0.0
I2
sF1.0
I23
sF2.0
I1
ssbsg25
(iregression_tree
decision_node
p515
(dp516
g2
Nsg25
Nsg26
I-1
sg27
Nsg28
(dp517
F1.0
I20
sF2.0
I17
sF3.0
I2
ssbsg26
I24
sg27
F62.0
sg28
Nsbsg25
(iregression_tree
decision_node
p518
(dp519
g2
Nsg25
Nsg26
I-1
sg27
Nsg28
(dp520
F1.0
I8
sF2.0
I10
sF3.0
I5
sF4.0
I1
ssbsg26
I22
sg27
F61.0
sg28
Nsbsg26
I11
sg27
F70.0
sg28
Nsbsg26
I23
sg27
F53.0
sg28
Nsbsg25
(iregression_tree
decision_node
p521
(dp522
g2
Nsg25
Nsg26
I-1
sg27
Nsg28
(dp523
F1.0
I12
sF2.0
I7
sF3.0
I12
sF4.0
I3
sF5.0
I3
sF12.0
I1
ssbsg26
I19
sg27
F58.0
sg28
Nsbsg26
I25
sg27
F59.0
sg28
Nsbsg26
I28
sg27
F61.0
sg28
Nsbsg25
(iregression_tree
decision_node
p524
(dp525
g2
(iregression_tree
decision_node
p526
(dp527
g2
Nsg25
Nsg26
I-1
sg27
Nsg28
(dp528
F1.0
I12
sF2.0
I6
sF3.0
I6
ssbsg25
(iregression_tree
decision_node
p529
(dp530
g2
Nsg25
Nsg26
I-1
sg27
Nsg28
(dp531
F1.0
I30
sF2.0
I3
ssbsg26
I8
sg27
F39.0
sg28
Nsbsg26
I2
sg27
F86.0
sg28
Nsbsg25
(iregression_tree
decision_node
p532
(dp533
g2
(iregression_tree
decision_node
p534
(dp535
g2
Nsg25
Nsg26
I-1
sg27
Nsg28
(dp536
F1.0
I14
sF2.0
I5
sF3.0
I3
sF4.0
I1
ssbsg25
(iregression_tree
decision_node
p537
(dp538
g2
Nsg25
Nsg26
I-1
sg27
Nsg28
(dp539
F1.0
I3
sF2.0
I4
sF3.0
I3
sF4.0
I6
sF5.0
I4
sF8.0
I1
ssbsg26
I6
sg27
F61.0
sg28
Nsbsg26
I20
sg27
F66.0
sg28
Nsbsg26
I2
sg27
F65.0
sg28
Nsbsg26
I23
sg27
F21.0
sg28
Nsbsg25
(iregression_tree
decision_node
p540
(dp541
g2
(iregression_tree
decision_node
p542
(dp543
g2
(iregression_tree
decision_node
p544
(dp545
g2
Nsg25
Nsg26
I-1
sg27
Nsg28
(dp546
F1.0
I2
sF2.0
I5
sF3.0
I11
sF4.0
I6
sF5.0
I1
sF6.0
I2
sF7.0
I2
sF9.0
I1
sF10.0
I1
ssbsg25
(iregression_tree
decision_node
p547
(dp548
g2
(iregression_tree
decision_node
p549
(dp550
g2
(iregression_tree
decision_node
p551
(dp552
g2
(iregression_tree
decision_node
p553
(dp554
g2
Nsg25
Nsg26
I-1
sg27
Nsg28
(dp555
F1.0
I21
sF2.0
I2
ssbsg25
(iregression_tree
decision_node
p556
(dp557
g2
Nsg25
Nsg26
I-1
sg27
Nsg28
(dp558
F1.0
I15
sF2.0
I6
sF3.0
I7
sF4.0
I1
ssbsg26
I16
sg27
F66.0
sg28
Nsbsg25
(iregression_tree
decision_node
p559
(dp560
g2
Nsg25
Nsg26
I-1
sg27
Nsg28
(dp561
F1.0
I12
sF2.0
I3
sF3.0
I5
sF4.0
I4
sF6.0
I2
sF10.0
I1
ssbsg26
I2
sg27
F79.0
sg28
Nsbsg25
(iregression_tree
decision_node
p562
(dp563
g2
(iregression_tree
decision_node
p564
(dp565
g2
(iregression_tree
decision_node
p566
(dp567
g2
(iregression_tree
decision_node
p568
(dp569
g2
(iregression_tree
decision_node
p570
(dp571
g2
Nsg25
Nsg26
I-1
sg27
Nsg28
(dp572
F1.0
I11
sF2.0
I6
sF3.0
I3
sF5.0
I1
ssbsg25
(iregression_tree
decision_node
p573
(dp574
g2
Nsg25
Nsg26
I-1
sg27
Nsg28
(dp575
F1.0
I6
sF2.0
I7
sF3.0
I4
sF4.0
I4
sF5.0
I1
ssbsg26
I18
sg27
F58.0
sg28
Nsbsg25
(iregression_tree
decision_node
p576
(dp577
g2
Nsg25
Nsg26
I-1
sg27
Nsg28
(dp578
F1.0
I6
sF2.0
I5
sF3.0
I1
sF4.0
I4
sF7.0
I2
sF8.0
I4
ssbsg26
I22
sg27
F56.0
sg28
Nsbsg25
(iregression_tree
decision_node
p579
(dp580
g2
(iregression_tree
decision_node
p581
(dp582
g2
Nsg25
Nsg26
I-1
sg27
Nsg28
(dp583
F1.0
I6
sF2.0
I3
sF3.0
I12
sF4.0
I3
sF5.0
I3
sF7.0
I4
ssbsg25
(iregression_tree
decision_node
p584
(dp585
g2
Nsg25
Nsg26
I-1
sg27
Nsg28
(dp586
F1.0
I2
sF2.0
I1
sF3.0
I4
sF4.0
I2
sF5.0
I10
sF9.0
I5
ssbsg26
I9
sg27
F64.0
sg28
Nsbsg26
I3
sg27
F57.0
sg28
Nsbsg25
(iregression_tree
decision_node
p587
(dp588
g2
(iregression_tree
decision_node
p589
(dp590
g2
(iregression_tree
decision_node
p591
(dp592
g2
Nsg25
Nsg26
I-1
sg27
Nsg28
(dp593
F1.0
I13
sF2.0
I7
sF3.0
I2
sF4.0
I3
sF7.0
I1
ssbsg25
(iregression_tree
decision_node
p594
(dp595
g2
Nsg25
Nsg26
I-1
sg27
Nsg28
(dp596
F1.0
I2
sF2.0
I7
sF3.0
I3
sF4.0
I2
sF5.0
I2
sF6.0
I6
sF7.0
I3
ssbsg26
I16
sg27
F57.0
sg28
Nsbsg25
(iregression_tree
decision_node
p597
(dp598
g2
(iregression_tree
decision_node
p599
(dp600
g2
Nsg25
Nsg26
I-1
sg27
Nsg28
(dp601
F1.0
I10
sF2.0
I3
sF3.0
I5
sF4.0
I3
ssbsg25
(iregression_tree
decision_node
p602
(dp603
g2
Nsg25
Nsg26
I-1
sg27
Nsg28
(dp604
F1.0
I28
sF2.0
I8
sF3.0
I1
ssbsg26
I20
sg27
F52.0
sg28
Nsbsg26
I17
sg27
F55.0
sg28
Nsbsg26
I8
sg27
F54.0
sg28
Nsbsg26
I7
sg27
F40.0
sg28
Nsbsg26
I11
sg27
F55.0
sg28
Nsbsg25
(iregression_tree
decision_node
p605
(dp606
g2
(iregression_tree
decision_node
p607
(dp608
g2
(iregression_tree
decision_node
p609
(dp610
g2
(iregression_tree
decision_node
p611
(dp612
g2
(iregression_tree
decision_node
p613
(dp614
g2
Nsg25
Nsg26
I-1
sg27
Nsg28
(dp615
F0.0
I3
sF1.0
I27
sF2.0
I1
sF3.0
I1
ssbsg25
(iregression_tree
decision_node
p616
(dp617
g2
Nsg25
Nsg26
I-1
sg27
Nsg28
(dp618
F1.0
I20
sF2.0
I4
sF3.0
I3
ssbsg26
I2
sg27
F74.0
sg28
Nsbsg25
(iregression_tree
decision_node
p619
(dp620
g2
(iregression_tree
decision_node
p621
(dp622
g2
Nsg25
Nsg26
I-1
sg27
Nsg28
(dp623
F1.0
I13
sF2.0
I17
sF3.0
I2
sF4.0
I2
sF5.0
I1
ssbsg25
(iregression_tree
decision_node
p624
(dp625
g2
Nsg25
Nsg26
I-1
sg27
Nsg28
(dp626
F1.0
I22
sF2.0
I2
sF3.0
I1
sF4.0
I1
ssbsg26
I4
sg27
F64.0
sg28
Nsbsg26
I22
sg27
F52.0
sg28
Nsbsg25
(iregression_tree
decision_node
p627
(dp628
g2
Nsg25
Nsg26
I-1
sg27
Nsg28
(dp629
F1.0
I11
sF2.0
I3
sF3.0
I6
sF4.0
I1
sF5.0
I2
ssbsg26
I18
sg27
F74.0
sg28
Nsbsg25
(iregression_tree
decision_node
p630
(dp631
g2
Nsg25
Nsg26
I-1
sg27
Nsg28
(dp632
F1.0
I13
sF2.0
I4
sF3.0
I2
sF4.0
I5
sF5.0
I1
sF6.0
I2
sF11.0
I1
ssbsg26
I19
sg27
F55.0
sg28
Nsbsg26
I17
sg27
F66.0
sg28
Nsbsg26
I29
sg27
F73.0
sg28
Nsbsg26
I28
sg27
F60.0
sg28
Nsbsg25
(iregression_tree
decision_node
p633
(dp634
g2
(iregression_tree
decision_node
p635
(dp636
g2
(iregression_tree
decision_node
p637
(dp638
g2
(iregression_tree
decision_node
p639
(dp640
g2
(iregression_tree
decision_node
p641
(dp642
g2
Nsg25
Nsg26
I-1
sg27
Nsg28
(dp643
F1.0
I9
sF2.0
I9
sF3.0
I8
sF6.0
I1
ssbsg25
(iregression_tree
decision_node
p644
(dp645
g2
(iregression_tree
decision_node
p646
(dp647
g2
(iregression_tree
decision_node
p648
(dp649
g2
Nsg25
Nsg26
I-1
sg27
Nsg28
(dp650
F0.0
I2
sF1.0
I9
sF2.0
I8
sF3.0
I2
ssbsg25
(iregression_tree
decision_node
p651
(dp652
g2
Nsg25
Nsg26
I-1
sg27
Nsg28
(dp653
F0.0
I2
sF1.0
I20
sF2.0
I1
ssbsg26
I15
sg27
F42.0
sg28
Nsbsg25
(iregression_tree
decision_node
p654
(dp655
g2
Nsg25
Nsg26
I-1
sg27
Nsg28
(dp656
F1.0
I8
sF2.0
I9
sF3.0
I5
ssbsg26
I6
sg27
F52.0
sg28
Nsbsg26
I12
sg27
F43.0
sg28
Nsbsg25
(iregression_tree
decision_node
p657
(dp658
g2
(iregression_tree
decision_node
p659
(dp660
g2
(iregression_tree
decision_node
p661
(dp662
g2
(iregression_tree
decision_node
p663
(dp664
g2
Nsg25
Nsg26
I-1
sg27
Nsg28
(dp665
F0.0
I1
sF1.0
I11
sF2.0
I20
sF3.0
I6
sF5.0
I1
ssbsg25
(iregression_tree
decision_node
p666
(dp667
g2
(iregression_tree
decision_node
p668
(dp669
g2
Nsg25
Nsg26
I-1
sg27
Nsg28
(dp670
F8.0
I3
sF2.0
I11
sF3.0
I4
sF4.0
I5
sF5.0
I1
ssbsg25
(iregression_tree
decision_node
p671
(dp672
g2
Nsg25
Nsg26
I-1
sg27
Nsg28
(dp673
F1.0
I10
sF2.0
I5
sF3.0
I7
sF4.0
I1
sF7.0
I1
ssbsg26
I7
sg27
F57.0
sg28
Nsbsg26
I3
sg27
F52.0
sg28
Nsbsg25
(iregression_tree
decision_node
p674
(dp675
g2
(iregression_tree
decision_node
p676
(dp677
g2
Nsg25
Nsg26
I-1
sg27
Nsg28
(dp678
F1.0
I1
sF2.0
I2
sF3.0
I8
sF4.0
I9
sF5.0
I7
sF6.0
I1
ssbsg25
(iregression_tree
decision_node
p679
(dp680
g2
Nsg25
Nsg26
I-1
sg27
Nsg28
(dp681
F1.0
I6
sF2.0
I3
sF3.0
I8
sF4.0
I3
sF5.0
I3
ssbsg26
I22
sg27
F61.0
sg28
Nsbsg26
I24
sg27
F30.0
sg28
Nsbsg25
(iregression_tree
decision_node
p682
(dp683
g2
(iregression_tree
decision_node
p684
(dp685
g2
(iregression_tree
decision_node
p686
(dp687
g2
Nsg25
Nsg26
I-1
sg27
Nsg28
(dp688
F1.0
I21
sF2.0
I14
sF3.0
I4
ssbsg25
(iregression_tree
decision_node
p689
(dp690
g2
(iregression_tree
decision_node
p691
(dp692
g2
(iregression_tree
decision_node
p693
(dp694
g2
(iregression_tree
decision_node
p695
(dp696
g2
Nsg25
Nsg26
I-1
sg27
Nsg28
(dp697
F1.0
I4
sF2.0
I12
sF3.0
I14
sF4.0
I1
sF5.0
I1
ssbsg25
(iregression_tree
decision_node
p698
(dp699
g2
Nsg25
Nsg26
I-1
sg27
Nsg28
(dp700
F1.0
I10
sF2.0
I12
sF3.0
I3
ssbsg26
I17
sg27
F72.0
sg28
Nsbsg25
(iregression_tree
decision_node
p701
(dp702
g2
Nsg25
Nsg26
I-1
sg27
Nsg28
(dp703
F0.0
I2
sF1.0
I13
sF2.0
I14
sF3.0
I2
ssbsg26
I0
sg27
F27.0
sg28
Nsbsg25
(iregression_tree
decision_node
p704
(dp705
g2
(iregression_tree
decision_node
p706
(dp707
g2
(iregression_tree
decision_node
p708
(dp709
g2
Nsg25
Nsg26
I-1
sg27
Nsg28
(dp710
F1.0
I9
sF2.0
I12
sF3.0
I1
sF4.0
I1
ssbsg25
(iregression_tree
decision_node
p711
(dp712
g2
Nsg25
Nsg26
I-1
sg27
Nsg28
(dp713
F0.0
I1
sF1.0
I5
sF2.0
I6
sF3.0
I6
sF4.0
I2
sF11.0
I1
ssbsg26
I3
sg27
F62.0
sg28
Nsbsg25
(iregression_tree
decision_node
p714
(dp715
g2
Nsg25
Nsg26
I-1
sg27
Nsg28
(dp716
F1.0
I4
sF2.0
I5
sF3.0
I6
sF4.0
I3
sF5.0
I4
sF7.0
I1
ssbsg26
I25
sg27
F56.0
sg28
Nsbsg26
I20
sg27
F59.0
sg28
Nsbsg26
I26
sg27
F3.0
sg28
Nsbsg25
(iregression_tree
decision_node
p717
(dp718
g2
(iregression_tree
decision_node
p719
(dp720
g2
(iregression_tree
decision_node
p721
(dp722
g2
Nsg25
Nsg26
I-1
sg27
Nsg28
(dp723
F1.0
I3
sF2.0
I9
sF3.0
I11
sF4.0
I6
sF6.0
I4
ssbsg25
(iregression_tree
decision_node
p724
(dp725
g2
(iregression_tree
decision_node
p726
(dp727
g2
Nsg25
Nsg26
I-1
sg27
Nsg28
(dp728
F1.0
I21
sF2.0
I14
sF3.0
I2
sF4.0
I1
ssbsg25
(iregression_tree
decision_node
p729
(dp730
g2
Nsg25
Nsg26
I-1
sg27
Nsg28
(dp731
F1.0
I9
sF2.0
I21
sF3.0
I7
sF4.0
I2
sF5.0
I1
sF7.0
I1
ssbsg26
I5
sg27
F43.0
sg28
Nsbsg26
I21
sg27
F41.0
sg28
Nsbsg25
(iregression_tree
decision_node
p732
(dp733
g2
(iregression_tree
decision_node
p734
(dp735
g2
Nsg25
Nsg26
I-1
sg27
Nsg28
(dp736
F1.0
I5
sF2.0
I6
sF3.0
I8
sF6.0
I1
sF7.0
I1
sF12.0
I1
ssbsg25
(iregression_tree
decision_node
p737
(dp738
g2
Nsg25
Nsg26
I-1
sg27
Nsg28
(dp739
F1.0
I1
sF2.0
I4
sF3.0
I2
sF4.0
I9
sF5.0
I2
sF6.0
I3
ssbsg26
I6
sg27
F61.0
sg28
Nsbsg26
I12
sg27
F68.0
sg28
Nsbsg26
I18
sg27
F70.0
sg28
Nsbsg26
I23
sg27
F39.0
sg28
Nsbsg26
I7
sg27
F33.0
sg28
Nsbsg25
(iregression_tree
decision_node
p740
(dp741
g2
(iregression_tree
decision_node
p742
(dp743
g2
(iregression_tree
decision_node
p744
(dp745
g2
(iregression_tree
decision_node
p746
(dp747
g2
Nsg25
Nsg26
I-1
sg27
Nsg28
(dp748
F1.0
I1
sF2.0
I9
sF3.0
I12
sF4.0
I2
sF5.0
I5
sF6.0
I1
sF7.0
I1
sF8.0
I2
sF9.0
I2
sF10.0
I1
sF12.0
I1
ssbsg25
(iregression_tree
decision_node
p749
(dp750
g2
(iregression_tree
decision_node
p751
(dp752
g2
(iregression_tree
decision_node
p753
(dp754
g2
Nsg25
Nsg26
I-1
sg27
Nsg28
(dp755
F2.0
I8
sF3.0
I3
sF4.0
I4
sF5.0
I3
sF7.0
I1
sF10.0
I2
ssbsg25
(iregression_tree
decision_node
p756
(dp757
g2
(iregression_tree
decision_node
p758
(dp759
g2
Nsg25
Nsg26
I-1
sg27
Nsg28
(dp760
F1.0
I5
sF2.0
I17
sF3.0
I6
sF4.0
I1
sF5.0
I2
ssbsg25
(iregression_tree
decision_node
p761
(dp762
g2
Nsg25
Nsg26
I-1
sg27
Nsg28
(dp763
F2.0
I10
sF3.0
I3
sF4.0
I9
sF5.0
I1
sF6.0
I1
ssbsg26
I24
sg27
F23.0
sg28
Nsbsg26
I2
sg27
F73.0
sg28
Nsbsg25
(iregression_tree
decision_node
p764
(dp765
g2
Nsg25
Nsg26
I-1
sg27
Nsg28
(dp766
F1.0
I12
sF2.0
I6
sF3.0
I4
sF4.0
I1
ssbsg26
I23
sg27
F40.0
sg28
Nsbsg26
I16
sg27
F63.0
sg28
Nsbsg25
(iregression_tree
decision_node
p767
(dp768
g2
(iregression_tree
decision_node
p769
(dp770
g2
(iregression_tree
decision_node
p771
(dp772
g2
Nsg25
Nsg26
I-1
sg27
Nsg28
(dp773
F1.0
I2
sF2.0
I9
sF3.0
I15
sF4.0
I2
sF5.0
I2
sF8.0
I3
sF15.0
I1
ssbsg25
(iregression_tree
decision_node
p774
(dp775
g2
Nsg25
Nsg26
I-1
sg27
Nsg28
(dp776
F0.0
I1
sF1.0
I2
sF2.0
I13
sF3.0
I2
sF4.0
I3
ssbsg26
I17
sg27
F66.0
sg28
Nsbsg25
(iregression_tree
decision_node
p777
(dp778
g2
(iregression_tree
decision_node
p779
(dp780
g2
(iregression_tree
decision_node
p781
(dp782
g2
Nsg25
Nsg26
I-1
sg27
Nsg28
(dp783
F2.0
I4
sF3.0
I5
sF5.0
I5
sF6.0
I6
sF7.0
I1
sF9.0
I5
sF10.0
I2
sF12.0
I2
ssbsg25
(iregression_tree
decision_node
p784
(dp785
g2
Nsg25
Nsg26
I-1
sg27
Nsg28
(dp786
F1.0
I5
sF2.0
I4
sF3.0
I7
sF4.0
I4
sF5.0
I2
sF8.0
I1
ssbsg26
I25
sg27
F21.0
sg28
Nsbsg25
(iregression_tree
decision_node
p787
(dp788
g2
Nsg25
Nsg26
I-1
sg27
Nsg28
(dp789
F2.0
I1
sF3.0
I4
sF4.0
I6
sF6.0
I1
sF8.0
I1
sF10.0
I1
sF11.0
I2
sF12.0
I1
sF15.0
I1
sF16.0
I3
ssbsg26
I25
sg27
F27.0
sg28
Nsbsg26
I18
sg27
F61.0
sg28
Nsbsg26
I9
sg27
F65.0
sg28
Nsbsg25
(iregression_tree
decision_node
p790
(dp791
g2
(iregression_tree
decision_node
p792
(dp793
g2
(iregression_tree
decision_node
p794
(dp795
g2
(iregression_tree
decision_node
p796
(dp797
g2
(iregression_tree
decision_node
p798
(dp799
g2
Nsg25
Nsg26
I-1
sg27
Nsg28
(dp800
F0.0
I2
sF1.0
I6
sF2.0
I6
sF3.0
I2
sF4.0
I4
sF5.0
I2
ssbsg25
(iregression_tree
decision_node
p801
(dp802
g2
Nsg25
Nsg26
I-1
sg27
Nsg28
(dp803
F1.0
I4
sF2.0
I7
sF3.0
I7
sF4.0
I1
sF5.0
I3
sF6.0
I4
sF9.0
I2
sF10.0
I2
sF11.0
I1
ssbsg26
I17
sg27
F70.0
sg28
Nsbsg25
(iregression_tree
decision_node
p804
(dp805
g2
(iregression_tree
decision_node
p806
(dp807
g2
(iregression_tree
decision_node
p808
(dp809
g2
Nsg25
Nsg26
I-1
sg27
Nsg28
(dp810
F1.0
I7
sF2.0
I5
sF3.0
I10
sF4.0
I3
sF5.0
I2
ssbsg25
(iregression_tree
decision_node
p811
(dp812
g2
(iregression_tree
decision_node
p813
(dp814
g2
Nsg25
Nsg26
I-1
sg27
Nsg28
(dp815
F0.0
I4
sF1.0
I11
sF2.0
I4
sF3.0
I3
ssbsg25
(iregression_tree
decision_node
p816
(dp817
g2
(iregression_tree
decision_node
p818
(dp819
g2
Nsg25
Nsg26
I-1
sg27
Nsg28
(dp820
F1.0
I3
sF2.0
I20
sF3.0
I8
sF4.0
I2
sF7.0
I1
ssbsg25
(iregression_tree
decision_node
p821
(dp822
g2
Nsg25
Nsg26
I-1
sg27
Nsg28
(dp823
F0.0
I1
sF1.0
I7
sF2.0
I12
sF3.0
I2
ssbsg26
I5
sg27
F58.0
sg28
Nsbsg26
I5
sg27
F39.0
sg28
Nsbsg26
I13
sg27
F59.0
sg28
Nsbsg25
(iregression_tree
decision_node
p824
(dp825
g2
(iregression_tree
decision_node
p826
(dp827
g2
(iregression_tree
decision_node
p828
(dp829
g2
(iregression_tree
decision_node
p830
(dp831
g2
Nsg25
Nsg26
I-1
sg27
Nsg28
(dp832
F1.0
I2
sF2.0
I8
sF3.0
I6
sF4.0
I5
sF5.0
I5
sF6.0
I3
sF7.0
I2
sF8.0
I2
sF10.0
I2
ssbsg25
(iregression_tree
decision_node
p833
(dp834
g2
Nsg25
Nsg26
I-1
sg27
Nsg28
(dp835
F1.0
I2
sF2.0
I15
sF3.0
I3
sF5.0
I1
sF7.0
I1
sF11.0
I1
ssbsg26
I14
sg27
F72.0
sg28
Nsbsg25
(iregression_tree
decision_node
p836
(dp837
g2
Nsg25
Nsg26
I-1
sg27
Nsg28
(dp838
F1.0
I4
sF2.0
I15
sF3.0
I6
sF4.0
I2
sF5.0
I1
ssbsg26
I18
sg27
F74.0
sg28
Nsbsg25
(iregression_tree
decision_node
p839
(dp840
g2
(iregression_tree
decision_node
p841
(dp842
g2
(iregression_tree
decision_node
p843
(dp844
g2
(iregression_tree
decision_node
p845
(dp846
g2
(iregression_tree
decision_node
p847
(dp848
g2
Nsg25
Nsg26
I-1
sg27
Nsg28
(dp849
F0.0
I1
sF1.0
I12
sF2.0
I15
sF3.0
I7
sF4.0
I2
sF5.0
I1
ssbsg25
(iregression_tree
decision_node
p850
(dp851
g2
(iregression_tree
decision_node
p852
(dp853
g2
(iregression_tree
decision_node
p854
(dp855
g2
Nsg25
Nsg26
I-1
sg27
Nsg28
(dp856
F1.0
I2
sF2.0
I6
sF3.0
I11
sF4.0
I17
sF5.0
I1
sF6.0
I1
ssbsg25
(iregression_tree
decision_node
p857
(dp858
g2
(iregression_tree
decision_node
p859
(dp860
g2
Nsg25
Nsg26
I-1
sg27
Nsg28
(dp861
F1.0
I5
sF2.0
I27
sF3.0
I2
sF4.0
I4
ssbsg25
(iregression_tree
decision_node
p862
(dp863
g2
Nsg25
Nsg26
I-1
sg27
Nsg28
(dp864
F1.0
I1
sF2.0
I7
sF3.0
I5
sF4.0
I6
sF5.0
I3
ssbsg26
I16
sg27
F76.0
sg28
Nsbsg26
I16
sg27
F69.0
sg28
Nsbsg25
(iregression_tree
decision_node
p865
(dp866
g2
Nsg25
Nsg26
I-1
sg27
Nsg28
(dp867
F1.0
I12
sF2.0
I13
sF4.0
I3
sF5.0
I1
ssbsg26
I13
sg27
F64.0
sg28
Nsbsg26
I0
sg27
F25.0
sg28
Nsbsg25
(iregression_tree
decision_node
p868
(dp869
g2
(iregression_tree
decision_node
p870
(dp871
g2
Nsg25
Nsg26
I-1
sg27
Nsg28
(dp872
F1.0
I7
sF2.0
I8
sF3.0
I4
sF4.0
I8
sF6.0
I4
sF7.0
I2
sF8.0
I4
ssbsg25
(iregression_tree
decision_node
p873
(dp874
g2
(iregression_tree
decision_node
p875
(dp876
g2
Nsg25
Nsg26
I-1
sg27
Nsg28
(dp877
F1.0
I7
sF2.0
I10
sF3.0
I4
sF4.0
I2
sF6.0
I1
ssbsg25
(iregression_tree
decision_node
p878
(dp879
g2
Nsg25
Nsg26
I-1
sg27
Nsg28
(dp880
F1.0
I2
sF2.0
I7
sF3.0
I2
sF4.0
I11
sF5.0
I1
ssbsg26
I20
sg27
F52.0
sg28
Nsbsg26
I17
sg27
F77.0
sg28
Nsbsg26
I17
sg27
F73.0
sg28
Nsbsg25
(iregression_tree
decision_node
p881
(dp882
g2
(iregression_tree
decision_node
p883
(dp884
g2
(iregression_tree
decision_node
p885
(dp886
g2
(iregression_tree
decision_node
p887
(dp888
g2
Nsg25
Nsg26
I-1
sg27
Nsg28
(dp889
F1.0
I24
sF2.0
I10
sF3.0
I3
ssbsg25
(iregression_tree
decision_node
p890
(dp891
g2
Nsg25
Nsg26
I-1
sg27
Nsg28
(dp892
F1.0
I8
sF2.0
I8
sF3.0
I3
sF4.0
I5
ssbsg26
I7
sg27
F56.0
sg28
Nsbsg25
(iregression_tree
decision_node
p893
(dp894
g2
(iregression_tree
decision_node
p895
(dp896
g2
Nsg25
Nsg26
I-1
sg27
Nsg28
(dp897
F1.0
I1
sF2.0
I11
sF3.0
I3
sF4.0
I7
ssbsg25
(iregression_tree
decision_node
p898
(dp899
g2
Nsg25
Nsg26
I-1
sg27
Nsg28
(dp900
F1.0
I5
sF2.0
I15
sF3.0
I5
ssbsg26
I2
sg27
F77.0
sg28
Nsbsg26
I29
sg27
F68.0
sg28
Nsbsg25
(iregression_tree
decision_node
p901
(dp902
g2
Nsg25
Nsg26
I-1
sg27
Nsg28
(dp903
F2.0
I16
sF3.0
I9
sF4.0
I7
sF5.0
I1
ssbsg26
I24
sg27
F66.0
sg28
Nsbsg26
I5
sg27
F41.0
sg28
Nsbsg25
(iregression_tree
decision_node
p904
(dp905
g2
(iregression_tree
decision_node
p906
(dp907
g2
Nsg25
Nsg26
I-1
sg27
Nsg28
(dp908
F2.0
I8
sF3.0
I5
sF4.0
I4
sF5.0
I1
sF6.0
I2
sF10.0
I2
ssbsg25
(iregression_tree
decision_node
p909
(dp910
g2
Nsg25
Nsg26
I-1
sg27
Nsg28
(dp911
F8.0
I1
sF1.0
I7
sF2.0
I2
sF3.0
I8
sF4.0
I4
ssbsg26
I5
sg27
F60.0
sg28
Nsbsg26
I5
sg27
F56.0
sg28
Nsbsg26
I23
sg27
F55.0
sg28
Nsbsg26
I18
sg27
F63.0
sg28
Nsbsg26
I2
sg27
F67.0
sg28
Nsbsg25
(iregression_tree
decision_node
p912
(dp913
g2
(iregression_tree
decision_node
p914
(dp915
g2
Nsg25
Nsg26
I-1
sg27
Nsg28
(dp916
F1.0
I3
sF2.0
I7
sF3.0
I4
sF4.0
I6
sF6.0
I2
sF7.0
I2
sF9.0
I1
sF10.0
I1
sF12.0
I1
sF15.0
I1
sF17.0
I2
ssbsg25
(iregression_tree
decision_node
p917
(dp918
g2
Nsg25
Nsg26
I-1
sg27
Nsg28
(dp919
F1.0
I6
sF2.0
I13
sF3.0
I11
sF4.0
I5
sF5.0
I2
sF6.0
I3
sF8.0
I1
ssbsg26
I20
sg27
F56.0
sg28
Nsbsg26
I3
sg27
F67.0
sg28
Nsbsg25
(iregression_tree
decision_node
p920
(dp921
g2
(iregression_tree
decision_node
p922
(dp923
g2
(iregression_tree
decision_node
p924
(dp925
g2
Nsg25
Nsg26
I-1
sg27
Nsg28
(dp926
F1.0
I2
sF2.0
I11
sF3.0
I7
sF4.0
I2
sF5.0
I1
sF6.0
I4
sF8.0
I2
sF11.0
I2
ssbsg25
(iregression_tree
decision_node
p927
(dp928
g2
Nsg25
Nsg26
I-1
sg27
Nsg28
(dp929
F1.0
I4
sF2.0
I13
sF3.0
I2
sF4.0
I2
sF5.0
I1
ssbsg26
I16
sg27
F70.0
sg28
Nsbsg25
(iregression_tree
decision_node
p930
(dp931
g2
Nsg25
Nsg26
I-1
sg27
Nsg28
(dp932
F1.0
I1
sF2.0
I7
sF3.0
I4
sF4.0
I3
sF5.0
I2
sF6.0
I6
sF7.0
I5
sF10.0
I2
sF11.0
I1
sF12.0
I1
ssbsg26
I23
sg27
F63.0
sg28
Nsbsg26
I29
sg27
F73.0
sg28
Nsbsg26
I25
sg27
F33.0
sg28
Nsbsg26
I28
sg27
F65.0
sg28
Nsbsg25
(iregression_tree
decision_node
p933
(dp934
g2
(iregression_tree
decision_node
p935
(dp936
g2
(iregression_tree
decision_node
p937
(dp938
g2
(iregression_tree
decision_node
p939
(dp940
g2
Nsg25
Nsg26
I-1
sg27
Nsg28
(dp941
F1.0
I5
sF2.0
I7
sF3.0
I6
sF4.0
I2
sF5.0
I4
sF6.0
I2
ssbsg25
(iregression_tree
decision_node
p942
(dp943
g2
(iregression_tree
decision_node
p944
(dp945
g2
Nsg25
Nsg26
I-1
sg27
Nsg28
(dp946
F1.0
I6
sF3.0
I2
sF4.0
I4
sF5.0
I1
sF6.0
I5
sF8.0
I6
sF9.0
I1
sF10.0
I3
sF11.0
I1
sF12.0
I2
sF13.0
I1
sF15.0
I1
sF17.0
I1
ssbsg25
(iregression_tree
decision_node
p947
(dp948
g2
Nsg25
Nsg26
I-1
sg27
Nsg28
(dp949
F1.0
I5
sF2.0
I2
sF3.0
I7
sF4.0
I8
sF5.0
I3
sF6.0
I4
sF7.0
I2
sF10.0
I1
ssbsg26
I19
sg27
F51.0
sg28
Nsbsg26
I22
sg27
F54.0
sg28
Nsbsg25
(iregression_tree
decision_node
p950
(dp951
g2
(iregression_tree
decision_node
p952
(dp953
g2
(iregression_tree
decision_node
p954
(dp955
g2
Nsg25
Nsg26
I-1
sg27
Nsg28
(dp956
F1.0
I6
sF2.0
I4
sF3.0
I14
sF4.0
I1
sF5.0
I3
sF6.0
I4
sF9.0
I1
ssbsg25
(iregression_tree
decision_node
p957
(dp958
g2
Nsg25
Nsg26
I-1
sg27
Nsg28
(dp959
F2.0
I2
sF3.0
I3
sF4.0
I7
sF5.0
I3
sF8.0
I2
sF9.0
I1
sF10.0
I4
sF11.0
I1
ssbsg26
I19
sg27
F58.0
sg28
Nsbsg25
(iregression_tree
decision_node
p960
(dp961
g2
(iregression_tree
decision_node
p962
(dp963
g2
(iregression_tree
decision_node
p964
(dp965
g2
(iregression_tree
decision_node
p966
(dp967
g2
Nsg25
Nsg26
I-1
sg27
Nsg28
(dp968
F1.0
I3
sF2.0
I5
sF3.0
I1
sF4.0
I2
sF5.0
I5
sF6.0
I3
sF8.0
I2
sF10.0
I1
ssbsg25
(iregression_tree
decision_node
p969
(dp970
g2
Nsg25
Nsg26
I-1
sg27
Nsg28
(dp971
F1.0
I5
sF2.0
I8
sF3.0
I10
sF4.0
I2
sF9.0
I1
sF10.0
I1
ssbsg26
I10
sg27
F73.0
sg28
Nsbsg25
(iregression_tree
decision_node
p972
(dp973
g2
(iregression_tree
decision_node
p974
(dp975
g2
Nsg25
Nsg26
I-1
sg27
Nsg28
(dp976
F1.0
I8
sF2.0
I8
sF3.0
I3
sF4.0
I4
sF5.0
I5
sF6.0
I1
sF7.0
I2
sF9.0
I1
ssbsg25
(iregression_tree
decision_node
p977
(dp978
g2
(iregression_tree
decision_node
p979
(dp980
g2
(iregression_tree
decision_node
p981
(dp982
g2
Nsg25
Nsg26
I-1
sg27
Nsg28
(dp983
F0.0
I1
sF1.0
I21
sF2.0
I4
ssbsg25
(iregression_tree
decision_node
p984
(dp985
g2
Nsg25
Nsg26
I-1
sg27
Nsg28
(dp986
F1.0
I18
sF2.0
I8
sF3.0
I7
sF5.0
I1
ssbsg26
I14
sg27
F70.0
sg28
Nsbsg25
(iregression_tree
decision_node
p987
(dp988
g2
Nsg25
Nsg26
I-1
sg27
Nsg28
(dp989
F1.0
I7
sF2.0
I9
sF3.0
I6
sF4.0
I4
sF7.0
I1
ssbsg26
I13
sg27
F64.0
sg28
Nsbsg26
I17
sg27
F64.0
sg28
Nsbsg26
I13
sg27
F58.0
sg28
Nsbsg25
(iregression_tree
decision_node
p990
(dp991
g2
Nsg25
Nsg26
I-1
sg27
Nsg28
(dp992
F1.0
I2
sF2.0
I6
sF3.0
I5
sF4.0
I5
sF5.0
I1
sF6.0
I3
sF7.0
I2
sF8.0
I1
sF9.0
I1
ssbsg26
I3
sg27
F65.0
sg28
Nsbsg26
I23
sg27
F31.0
sg28
Nsbsg26
I11
sg27
F67.0
sg28
Nsbsg25
(iregression_tree
decision_node
p993
(dp994
g2
(iregression_tree
decision_node
p995
(dp996
g2
Nsg25
Nsg26
I-1
sg27
Nsg28
(dp997
F1.0
I14
sF2.0
I8
sF3.0
I1
sF4.0
I4
sF5.0
I5
sF6.0
I3
sF7.0
I1
sF11.0
I1
sF13.0
I1
ssbsg25
(iregression_tree
decision_node
p998
(dp999
g2
Nsg25
Nsg26
I-1
sg27
Nsg28
(dp1000
F1.0
I2
sF2.0
I5
sF3.0
I3
sF4.0
I3
sF5.0
I2
sF9.0
I1
sF11.0
I4
sF13.0
I2
sF19.0
I2
sF23.0
I2
sF26.0
I2
ssbsg26
I6
sg27
F67.0
sg28
Nsbsg26
I19
sg27
F62.0
sg28
Nsbsg26
I29
sg27
F75.0
sg28
Nsbsg26
I28
sg27
F64.0
sg28
Nsbsg25
(iregression_tree
decision_node
p1001
(dp1002
g2
(iregression_tree
decision_node
p1003
(dp1004
g2
(iregression_tree
decision_node
p1005
(dp1006
g2
(iregression_tree
decision_node
p1007
(dp1008
g2
Nsg25
Nsg26
I-1
sg27
Nsg28
(dp1009
F1.0
I1
sF2.0
I7
sF3.0
I8
sF4.0
I4
sF5.0
I3
sF6.0
I2
sF7.0
I4
sF8.0
I2
sF9.0
I5
sF11.0
I2
sF13.0
I1
ssbsg25
(iregression_tree
decision_node
p1010
(dp1011
g2
(iregression_tree
decision_node
p1012
(dp1013
g2
Nsg25
Nsg26
I-1
sg27
Nsg28
(dp1014
F3.0
I1
sF4.0
I2
sF5.0
I1
sF6.0
I4
sF7.0
I2
sF8.0
I1
sF9.0
I2
sF10.0
I3
sF11.0
I2
sF12.0
I3
sF17.0
I1
sF19.0
I4
sF26.0
I2
sF29.0
I1
ssbsg25
(iregression_tree
decision_node
p1015
(dp1016
g2
Nsg25
Nsg26
I-1
sg27
Nsg28
(dp1017
F1.0
I2
sF3.0
I4
sF4.0
I5
sF5.0
I3
sF7.0
I3
sF9.0
I1
sF10.0
I5
sF15.0
I2
ssbsg26
I6
sg27
F69.0
sg28
Nsbsg26
I11
sg27
F72.0
sg28
Nsbsg25
(iregression_tree
decision_node
p1018
(dp1019
g2
(iregression_tree
decision_node
p1020
(dp1021
g2
(iregression_tree
decision_node
p1022
(dp1023
g2
(iregression_tree
decision_node
p1024
(dp1025
g2
(iregression_tree
decision_node
p1026
(dp1027
g2
Nsg25
Nsg26
I-1
sg27
Nsg28
(dp1028
F1.0
I6
sF2.0
I6
sF3.0
I2
sF4.0
I3
sF5.0
I1
sF6.0
I1
sF7.0
I4
ssbsg25
(iregression_tree
decision_node
p1029
(dp1030
g2
(iregression_tree
decision_node
p1031
(dp1032
g2
(iregression_tree
decision_node
p1033
(dp1034
g2
Nsg25
Nsg26
I-1
sg27
Nsg28
(dp1035
F1.0
I2
sF2.0
I3
sF3.0
I5
sF4.0
I5
sF5.0
I3
sF6.0
I5
sF8.0
I2
sF9.0
I2
sF11.0
I1
sF12.0
I1
sF13.0
I4
sF16.0
I1
ssbsg25
(iregression_tree
decision_node
p1036
(dp1037
g2
Nsg25
Nsg26
I-1
sg27
Nsg28
(dp1038
F1.0
I1
sF3.0
I2
sF4.0
I4
sF6.0
I1
sF9.0
I3
sF12.0
I4
sF13.0
I4
sF14.0
I2
sF15.0
I1
sF16.0
I1
ssbsg26
I5
sg27
F51.0
sg28
Nsbsg25
(iregression_tree
decision_node
p1039
(dp1040
g2
Nsg25
Nsg26
I-1
sg27
Nsg28
(dp1041
F1.0
I3
sF2.0
I4
sF3.0
I1
sF4.0
I11
sF5.0
I3
sF7.0
I2
sF9.0
I2
sF10.0
I3
sF13.0
I1
ssbsg26
I15
sg27
F66.0
sg28
Nsbsg26
I9
sg27
F52.0
sg28
Nsbsg25
(iregression_tree
decision_node
p1042
(dp1043
g2
Nsg25
Nsg26
I-1
sg27
Nsg28
(dp1044
F0.0
I3
sF1.0
I6
sF2.0
I5
sF3.0
I5
sF4.0
I7
sF6.0
I1
sF15.0
I1
ssbsg26
I21
sg27
F66.0
sg28
Nsbsg25
(iregression_tree
decision_node
p1045
(dp1046
g2
(iregression_tree
decision_node
p1047
(dp1048
g2
Nsg25
Nsg26
I-1
sg27
Nsg28
(dp1049
F32.0
I2
sF1.0
I1
sF3.0
I1
sF4.0
I1
sF6.0
I2
sF7.0
I4
sF9.0
I3
sF12.0
I3
sF18.0
I1
sF22.0
I1
sF26.0
I2
ssbsg25
(iregression_tree
decision_node
p1050
(dp1051
g2
Nsg25
Nsg26
I-1
sg27
Nsg28
(dp1052
F2.0
I5
sF3.0
I9
sF4.0
I3
sF5.0
I1
sF6.0
I5
sF11.0
I2
sF12.0
I1
sF14.0
I2
sF15.0
I1
sF16.0
I1
sF18.0
I1
ssbsg26
I18
sg27
F64.0
sg28
Nsbsg26
I20
sg27
F66.0
sg28
Nsbsg25
(iregression_tree
decision_node
p1053
(dp1054
g2
(iregression_tree
decision_node
p1055
(dp1056
g2
(iregression_tree
decision_node
p1057
(dp1058
g2
Nsg25
Nsg26
I-1
sg27
Nsg28
(dp1059
F2.0
I4
sF3.0
I1
sF4.0
I5
sF5.0
I4
sF7.0
I1
sF9.0
I1
sF10.0
I2
sF12.0
I1
sF13.0
I1
sF16.0
I2
ssbsg25
(iregression_tree
decision_node
p1060
(dp1061
g2
(iregression_tree
decision_node
p1062
(dp1063
g2
(iregression_tree
decision_node
p1064
(dp1065
g2
(iregression_tree
decision_node
p1066
(dp1067
g2
(iregression_tree
decision_node
p1068
(dp1069
g2
(iregression_tree
decision_node
p1070
(dp1071
g2
(iregression_tree
decision_node
p1072
(dp1073
g2
Nsg25
Nsg26
I-1
sg27
Nsg28
(dp1074
F0.0
I2
sF1.0
I3
sF2.0
I13
sF3.0
I12
sF4.0
I1
sF5.0
I1
sF6.0
I1
sF7.0
I2
ssbsg25
(iregression_tree
decision_node
p1075
(dp1076
g2
(iregression_tree
decision_node
p1077
(dp1078
g2
Nsg25
Nsg26
I-1
sg27
Nsg28
(dp1079
F1.0
I1
sF2.0
I4
sF3.0
I3
sF4.0
I4
sF6.0
I2
sF7.0
I7
sF8.0
I1
ssbsg25
(iregression_tree
decision_node
p1080
(dp1081
g2
Nsg25
Nsg26
I-1
sg27
Nsg28
(dp1082
F0.0
I2
sF1.0
I1
sF2.0
I8
sF3.0
I13
sF4.0
I6
sF5.0
I7
sF6.0
I3
ssbsg26
I17
sg27
F66.0
sg28
Nsbsg26
I29
sg27
F69.0
sg28
Nsbsg25
(iregression_tree
decision_node
p1083
(dp1084
g2
Nsg25
Nsg26
I-1
sg27
Nsg28
(dp1085
F2.0
I4
sF3.0
I3
sF4.0
I4
sF5.0
I2
sF6.0
I1
sF7.0
I1
sF8.0
I6
ssbsg26
I12
sg27
F72.0
sg28
Nsbsg25
(iregression_tree
decision_node
p1086
(dp1087
g2
(iregression_tree
decision_node
p1088
(dp1089
g2
Nsg25
Nsg26
I-1
sg27
Nsg28
(dp1090
F1.0
I1
sF2.0
I4
sF3.0
I7
sF4.0
I3
sF5.0
I6
ssbsg25
(iregression_tree
decision_node
p1091
(dp1092
g2
(iregression_tree
decision_node
p1093
(dp1094
g2
Nsg25
Nsg26
I-1
sg27
Nsg28
(dp1095
F0.0
I1
sF1.0
I4
sF2.0
I9
sF3.0
I7
ssbsg25
(iregression_tree
decision_node
p1096
(dp1097
g2
Nsg25
Nsg26
I-1
sg27
Nsg28
(dp1098
F1.0
I2
sF2.0
I7
sF3.0
I10
sF4.0
I4
sF5.0
I2
sF7.0
I1
ssbsg26
I13
sg27
F63.0
sg28
Nsbsg26
I2
sg27
F72.0
sg28
Nsbsg26
I17
sg27
F74.0
sg28
Nsbsg25
(iregression_tree
decision_node
p1099
(dp1100
g2
Nsg25
Nsg26
I-1
sg27
Nsg28
(dp1101
F1.0
I10
sF2.0
I7
sF3.0
I4
ssbsg26
I4
sg27
F70.0
sg28
Nsbsg25
(iregression_tree
decision_node
p1102
(dp1103
g2
(iregression_tree
decision_node
p1104
(dp1105
g2
(iregression_tree
decision_node
p1106
(dp1107
g2
(iregression_tree
decision_node
p1108
(dp1109
g2
(iregression_tree
decision_node
p1110
(dp1111
g2
Nsg25
Nsg26
I-1
sg27
Nsg28
(dp1112
F0.0
I1
sF1.0
I1
sF2.0
I1
sF3.0
I16
sF4.0
I2
sF5.0
I2
ssbsg25
(iregression_tree
decision_node
p1113
(dp1114
g2
Nsg25
Nsg26
I-1
sg27
Nsg28
(dp1115
F1.0
I6
sF2.0
I14
sF3.0
I9
sF4.0
I2
ssbsg26
I29
sg27
F68.0
sg28
Nsbsg25
(iregression_tree
decision_node
p1116
(dp1117
g2
Nsg25
Nsg26
I-1
sg27
Nsg28
(dp1118
F1.0
I4
sF2.0
I4
sF3.0
I12
sF4.0
I11
sF5.0
I2
sF6.0
I3
sF7.0
I1
sF8.0
I1
ssbsg26
I8
sg27
F63.0
sg28
Nsbsg25
(iregression_tree
decision_node
p1119
(dp1120
g2
(iregression_tree
decision_node
p1121
(dp1122
g2
(iregression_tree
decision_node
p1123
(dp1124
g2
Nsg25
Nsg26
I-1
sg27
Nsg28
(dp1125
F1.0
I1
sF2.0
I14
sF3.0
I6
sF4.0
I3
sF5.0
I2
sF6.0
I4
sF7.0
I2
sF11.0
I1
ssbsg25
(iregression_tree
decision_node
p1126
(dp1127
g2
(iregression_tree
decision_node
p1128
(dp1129
g2
(iregression_tree
decision_node
p1130
(dp1131
g2
Nsg25
Nsg26
I-1
sg27
Nsg28
(dp1132
F2.0
I1
sF3.0
I5
sF4.0
I4
sF5.0
I5
sF6.0
I1
sF7.0
I5
sF10.0
I3
ssbsg25
(iregression_tree
decision_node
p1133
(dp1134
g2
Nsg25
Nsg26
I-1
sg27
Nsg28
(dp1135
F1.0
I2
sF2.0
I4
sF3.0
I3
sF4.0
I8
sF5.0
I3
sF9.0
I1
ssbsg26
I17
sg27
F79.0
sg28
Nsbsg25
(iregression_tree
decision_node
p1136
(dp1137
g2
Nsg25
Nsg26
I-1
sg27
Nsg28
(dp1138
F2.0
I2
sF3.0
I2
sF4.0
I1
sF5.0
I2
sF6.0
I1
sF7.0
I1
sF8.0
I5
sF9.0
I5
sF15.0
I1
sF16.0
I1
ssbsg26
I11
sg27
F75.0
sg28
Nsbsg26
I8
sg27
F56.0
sg28
Nsbsg25
(iregression_tree
decision_node
p1139
(dp1140
g2
(iregression_tree
decision_node
p1141
(dp1142
g2
(iregression_tree
decision_node
p1143
(dp1144
g2
Nsg25
Nsg26
I-1
sg27
Nsg28
(dp1145
F1.0
I3
sF2.0
I12
sF3.0
I15
sF4.0
I5
ssbsg25
(iregression_tree
decision_node
p1146
(dp1147
g2
Nsg25
Nsg26
I-1
sg27
Nsg28
(dp1148
F2.0
I7
sF3.0
I11
sF4.0
I6
sF5.0
I8
sF7.0
I1
ssbsg26
I16
sg27
F67.0
sg28
Nsbsg25
(iregression_tree
decision_node
p1149
(dp1150
g2
Nsg25
Nsg26
I-1
sg27
Nsg28
(dp1151
F2.0
I3
sF3.0
I7
sF4.0
I5
sF6.0
I1
sF7.0
I2
sF9.0
I2
sF11.0
I1
sF13.0
I1
ssbsg26
I3
sg27
F68.0
sg28
Nsbsg26
I21
sg27
F62.0
sg28
Nsbsg26
I18
sg27
F63.0
sg28
Nsbsg25
(iregression_tree
decision_node
p1152
(dp1153
g2
Nsg25
Nsg26
I-1
sg27
Nsg28
(dp1154
F1.0
I2
sF2.0
I2
sF3.0
I8
sF4.0
I4
sF5.0
I1
sF6.0
I1
sF7.0
I2
sF8.0
I5
sF9.0
I1
sF14.0
I1
sF15.0
I1
sF19.0
I1
ssbsg26
I29
sg27
F76.0
sg28
Nsbsg26
I7
sg27
F51.0
sg28
Nsbsg25
(iregression_tree
decision_node
p1155
(dp1156
g2
Nsg25
Nsg26
I-1
sg27
Nsg28
(dp1157
F2.0
I3
sF3.0
I4
sF4.0
I6
sF5.0
I2
sF6.0
I1
sF8.0
I1
sF11.0
I2
sF13.0
I1
sF15.0
I1
sF16.0
I1
sF17.0
I1
ssbsg26
I12
sg27
F86.0
sg28
Nsbsg26
I14
sg27
F48.0
sg28
Nsbsg25
(iregression_tree
decision_node
p1158
(dp1159
g2
(iregression_tree
decision_node
p1160
(dp1161
g2
(iregression_tree
decision_node
p1162
(dp1163
g2
(iregression_tree
decision_node
p1164
(dp1165
g2
(iregression_tree
decision_node
p1166
(dp1167
g2
Nsg25
Nsg26
I-1
sg27
Nsg28
(dp1168
F2.0
I1
sF3.0
I3
sF4.0
I3
sF5.0
I1
sF6.0
I1
sF7.0
I1
sF8.0
I3
sF11.0
I1
sF12.0
I3
sF15.0
I1
sF17.0
I3
sF20.0
I1
ssbsg25
(iregression_tree
decision_node
p1169
(dp1170
g2
Nsg25
Nsg26
I-1
sg27
Nsg28
(dp1171
F0.0
I2
sF2.0
I1
sF3.0
I3
sF4.0
I4
sF5.0
I1
sF6.0
I6
sF8.0
I1
sF12.0
I3
ssbsg26
I14
sg27
F80.0
sg28
Nsbsg25
(iregression_tree
decision_node
p1172
(dp1173
g2
(iregression_tree
decision_node
p1174
(dp1175
g2
Nsg25
Nsg26
I-1
sg27
Nsg28
(dp1176
F0.0
I3
sF1.0
I2
sF2.0
I8
sF3.0
I7
sF4.0
I1
sF13.0
I1
ssbsg25
(iregression_tree
decision_node
p1177
(dp1178
g2
(iregression_tree
decision_node
p1179
(dp1180
g2
(iregression_tree
decision_node
p1181
(dp1182
g2
Nsg25
Nsg26
I-1
sg27
Nsg28
(dp1183
F0.0
I1
sF2.0
I14
sF3.0
I11
sF4.0
I11
sF6.0
I1
sF7.0
I1
ssbsg25
(iregression_tree
decision_node
p1184
(dp1185
g2
Nsg25
Nsg26
I-1
sg27
Nsg28
(dp1186
F2.0
I2
sF3.0
I7
sF4.0
I7
sF5.0
I4
sF6.0
I2
sF9.0
I1
sF13.0
I2
sF14.0
I1
sF17.0
I1
ssbsg26
I7
sg27
F59.0
sg28
Nsbsg25
(iregression_tree
decision_node
p1187
(dp1188
g2
(iregression_tree
decision_node
p1189
(dp1190
g2
(iregression_tree
decision_node
p1191
(dp1192
g2
Nsg25
Nsg26
I-1
sg27
Nsg28
(dp1193
F0.0
I1
sF1.0
I1
sF2.0
I4
sF3.0
I5
sF4.0
I4
sF5.0
I10
sF6.0
I9
sF7.0
I1
sF9.0
I3
sF10.0
I1
sF16.0
I2
ssbsg25
(iregression_tree
decision_node
p1194
(dp1195
g2
Nsg25
Nsg26
I-1
sg27
Nsg28
(dp1196
F2.0
I1
sF3.0
I1
sF4.0
I6
sF5.0
I3
sF6.0
I6
sF7.0
I2
sF8.0
I3
sF9.0
I4
sF11.0
I1
sF12.0
I4
sF13.0
I3
sF15.0
I1
sF16.0
I1
ssbsg26
I9
sg27
F67.0
sg28
Nsbsg25
(iregression_tree
decision_node
p1197
(dp1198
g2
(iregression_tree
decision_node
p1199
(dp1200
g2
Nsg25
Nsg26
I-1
sg27
Nsg28
(dp1201
F3.0
I2
sF4.0
I3
sF5.0
I5
sF6.0
I1
sF7.0
I2
sF8.0
I3
sF9.0
I1
sF12.0
I3
sF14.0
I1
ssbsg25
(iregression_tree
decision_node
p1202
(dp1203
g2
(iregression_tree
decision_node
p1204
(dp1205
g2
(iregression_tree
decision_node
p1206
(dp1207
g2
Nsg25
Nsg26
I-1
sg27
Nsg28
(dp1208
F1.0
I1
sF2.0
I2
sF3.0
I6
sF4.0
I10
sF5.0
I7
sF6.0
I7
sF7.0
I1
sF9.0
I1
sF10.0
I1
ssbsg25
(iregression_tree
decision_node
p1209
(dp1210
g2
Nsg25
Nsg26
I-1
sg27
Nsg28
(dp1211
F2.0
I12
sF3.0
I4
sF4.0
I7
sF5.0
I4
sF7.0
I1
ssbsg26
I0
sg27
F28.0
sg28
Nsbsg25
(iregression_tree
decision_node
p1212
(dp1213
g2
(iregression_tree
decision_node
p1214
(dp1215
g2
(iregression_tree
decision_node
p1216
(dp1217
g2
Nsg25
Nsg26
I-1
sg27
Nsg28
(dp1218
F2.0
I4
sF3.0
I2
sF4.0
I4
sF5.0
I3
sF6.0
I4
sF7.0
I1
sF8.0
I2
sF9.0
I1
sF10.0
I1
ssbsg25
(iregression_tree
decision_node
p1219
(dp1220
g2
Nsg25
Nsg26
I-1
sg27
Nsg28
(dp1221
F0.0
I2
sF2.0
I3
sF3.0
I13
sF4.0
I4
sF5.0
I4
sF7.0
I2
ssbsg26
I20
sg27
F41.0
sg28
Nsbsg25
(iregression_tree
decision_node
p1222
(dp1223
g2
(iregression_tree
decision_node
p1224
(dp1225
g2
(iregression_tree
decision_node
p1226
(dp1227
g2
Nsg25
Nsg26
I-1
sg27
Nsg28
(dp1228
F2.0
I1
sF3.0
I5
sF5.0
I7
sF6.0
I4
sF7.0
I4
sF11.0
I2
ssbsg25
(iregression_tree
decision_node
p1229
(dp1230
g2
Nsg25
Nsg26
I-1
sg27
Nsg28
(dp1231
F3.0
I2
sF4.0
I2
sF5.0
I3
sF6.0
I1
sF7.0
I1
sF8.0
I2
sF9.0
I2
sF10.0
I6
sF12.0
I1
sF13.0
I1
sF15.0
I1
ssbsg26
I17
sg27
F75.0
sg28
Nsbsg25
(iregression_tree
decision_node
p1232
(dp1233
g2
Nsg25
Nsg26
I-1
sg27
Nsg28
(dp1234
F1.0
I1
sF3.0
I5
sF4.0
I2
sF5.0
I8
sF6.0
I6
ssbsg26
I23
sg27
F68.0
sg28
Nsbsg26
I19
sg27
F49.0
sg28
Nsbsg26
I23
sg27
F62.0
sg28
Nsbsg26
I8
sg27
F45.0
sg28
Nsbsg26
I0
sg27
F25.0
sg28
Nsbsg26
I1
sg27
F178.0
sg28
Nsbsg26
I20
sg27
F23.0
sg28
Nsbsg26
I18
sg27
F57.0
sg28
Nsbsg25
(iregression_tree
decision_node
p1235
(dp1236
g2
(iregression_tree
decision_node
p1237
(dp1238
g2
Nsg25
Nsg26
I-1
sg27
Nsg28
(dp1239
F0.0
I4
sF2.0
I9
sF3.0
I6
sF4.0
I1
sF5.0
I1
sF6.0
I1
ssbsg25
(iregression_tree
decision_node
p1240
(dp1241
g2
(iregression_tree
decision_node
p1242
(dp1243
g2
Nsg25
Nsg26
I-1
sg27
Nsg28
(dp1244
F2.0
I5
sF3.0
I9
sF4.0
I8
sF6.0
I6
sF7.0
I1
sF8.0
I3
sF9.0
I1
sF11.0
I1
sF12.0
I1
ssbsg25
(iregression_tree
decision_node
p1245
(dp1246
g2
Nsg25
Nsg26
I-1
sg27
Nsg28
(dp1247
F0.0
I1
sF1.0
I4
sF2.0
I8
sF3.0
I6
sF4.0
I10
sF5.0
I4
sF6.0
I2
sF8.0
I1
ssbsg26
I22
sg27
F65.0
sg28
Nsbsg26
I16
sg27
F59.0
sg28
Nsbsg26
I4
sg27
F70.0
sg28
Nsbsg25
(iregression_tree
decision_node
p1248
(dp1249
g2
Nsg25
Nsg26
I-1
sg27
Nsg28
(dp1250
F2.0
I3
sF3.0
I2
sF4.0
I9
sF5.0
I3
sF6.0
I2
sF7.0
I2
sF8.0
I3
sF13.0
I3
sF16.0
I2
sF17.0
I1
sF19.0
I2
sF24.0
I1
ssbsg26
I5
sg27
F66.0
sg28
Nsbsg26
I28
sg27
F68.0
sg28
Nsbsg26
I17
sg27
F61.0
sg28
Nsbsg26
I23
sg27
F23.0
sg28
Nsbsg25
(iregression_tree
decision_node
p1251
(dp1252
g2
(iregression_tree
decision_node
p1253
(dp1254
g2
(iregression_tree
decision_node
p1255
(dp1256
g2
(iregression_tree
decision_node
p1257
(dp1258
g2
Nsg25
Nsg26
I-1
sg27
Nsg28
(dp1259
F1.0
I2
sF3.0
I6
sF5.0
I4
sF6.0
I5
sF7.0
I1
sF8.0
I2
sF10.0
I2
sF11.0
I1
sF15.0
I1
ssbsg25
(iregression_tree
decision_node
p1260
(dp1261
g2
Nsg25
Nsg26
I-1
sg27
Nsg28
(dp1262
F0.0
I2
sF1.0
I2
sF2.0
I7
sF3.0
I10
sF4.0
I4
sF5.0
I2
sF6.0
I2
sF9.0
I1
ssbsg26
I19
sg27
F32.0
sg28
Nsbsg25
(iregression_tree
decision_node
p1263
(dp1264
g2
(iregression_tree
decision_node
p1265
(dp1266
g2
Nsg25
Nsg26
I-1
sg27
Nsg28
(dp1267
F0.0
I3
sF2.0
I7
sF3.0
I4
sF4.0
I5
sF5.0
I3
sF6.0
I7
sF7.0
I5
sF8.0
I2
sF10.0
I3
ssbsg25
(iregression_tree
decision_node
p1268
(dp1269
g2
(iregression_tree
decision_node
p1270
(dp1271
g2
Nsg25
Nsg26
I-1
sg27
Nsg28
(dp1272
F2.0
I1
sF3.0
I1
sF4.0
I4
sF5.0
I3
sF7.0
I4
sF8.0
I4
sF9.0
I4
sF11.0
I1
sF12.0
I5
sF14.0
I1
sF15.0
I2
sF18.0
I1
ssbsg25
(iregression_tree
decision_node
p1273
(dp1274
g2
Nsg25
Nsg26
I-1
sg27
Nsg28
(dp1275
F1.0
I1
sF2.0
I3
sF3.0
I6
sF4.0
I4
sF5.0
I7
sF6.0
I6
sF7.0
I1
sF8.0
I1
sF11.0
I2
ssbsg26
I20
sg27
F47.0
sg28
Nsbsg26
I21
sg27
F42.0
sg28
Nsbsg26
I0
sg27
F26.0
sg28
Nsbsg25
(iregression_tree
decision_node
p1276
(dp1277
g2
(iregression_tree
decision_node
p1278
(dp1279
g2
(iregression_tree
decision_node
p1280
(dp1281
g2
(iregression_tree
decision_node
p1282
(dp1283
g2
Nsg25
Nsg26
I-1
sg27
Nsg28
(dp1284
F1.0
I1
sF2.0
I2
sF4.0
I1
sF6.0
I1
sF8.0
I5
sF9.0
I2
sF11.0
I3
sF12.0
I5
sF34.0
I1
sF14.0
I1
sF24.0
I3
ssbsg25
(iregression_tree
decision_node
p1285
(dp1286
g2
Nsg25
Nsg26
I-1
sg27
Nsg28
(dp1287
F3.0
I2
sF4.0
I6
sF5.0
I3
sF6.0
I4
sF9.0
I4
sF10.0
I2
sF11.0
I2
sF12.0
I1
sF19.0
I1
ssbsg26
I7
sg27
F61.0
sg28
Nsbsg25
(iregression_tree
decision_node
p1288
(dp1289
g2
(iregression_tree
decision_node
p1290
(dp1291
g2
Nsg25
Nsg26
I-1
sg27
Nsg28
(dp1292
F2.0
I1
sF3.0
I2
sF4.0
I4
sF5.0
I5
sF6.0
I5
sF7.0
I4
sF9.0
I1
sF10.0
I3
sF12.0
I1
sF13.0
I1
sF14.0
I1
sF15.0
I1
sF17.0
I2
ssbsg25
(iregression_tree
decision_node
p1293
(dp1294
g2
(iregression_tree
decision_node
p1295
(dp1296
g2
(iregression_tree
decision_node
p1297
(dp1298
g2
(iregression_tree
decision_node
p1299
(dp1300
g2
Nsg25
Nsg26
I-1
sg27
Nsg28
(dp1301
F3.0
I1
sF4.0
I6
sF5.0
I5
sF6.0
I8
sF7.0
I5
sF8.0
I1
sF9.0
I7
sF10.0
I5
sF11.0
I1
sF14.0
I1
sF19.0
I1
ssbsg25
(iregression_tree
decision_node
p1302
(dp1303
g2
Nsg25
Nsg26
I-1
sg27
Nsg28
(dp1304
F1.0
I1
sF2.0
I3
sF3.0
I3
sF4.0
I6
sF5.0
I3
sF6.0
I4
sF7.0
I1
sF9.0
I2
sF15.0
I1
ssbsg26
I12
sg27
F77.0
sg28
Nsbsg25
(iregression_tree
decision_node
p1305
(dp1306
g2
Nsg25
Nsg26
I-1
sg27
Nsg28
(dp1307
F1.0
I1
sF2.0
I3
sF3.0
I2
sF4.0
I12
sF5.0
I5
sF6.0
I5
sF7.0
I3
sF8.0
I2
sF10.0
I1
ssbsg26
I22
sg27
F68.0
sg28
Nsbsg25
(iregression_tree
decision_node
p1308
(dp1309
g2
Nsg25
Nsg26
I-1
sg27
Nsg28
(dp1310
F1.0
I4
sF2.0
I3
sF3.0
I3
sF4.0
I5
sF5.0
I2
sF6.0
I4
sF7.0
I2
sF8.0
I1
ssbsg26
I9
sg27
F71.0
sg28
Nsbsg26
I22
sg27
F59.0
sg28
Nsbsg26
I17
sg27
F67.0
sg28
Nsbsg25
(iregression_tree
decision_node
p1311
(dp1312
g2
(iregression_tree
decision_node
p1313
(dp1314
g2
(iregression_tree
decision_node
p1315
(dp1316
g2
(iregression_tree
decision_node
p1317
(dp1318
g2
(iregression_tree
decision_node
p1319
(dp1320
g2
Nsg25
Nsg26
I-1
sg27
Nsg28
(dp1321
F1.0
I1
sF2.0
I1
sF3.0
I4
sF4.0
I2
sF5.0
I4
sF6.0
I2
sF7.0
I4
sF10.0
I2
sF12.0
I1
ssbsg25
(iregression_tree
decision_node
p1322
(dp1323
g2
Nsg25
Nsg26
I-1
sg27
Nsg28
(dp1324
F1.0
I1
sF2.0
I2
sF3.0
I2
sF4.0
I8
sF5.0
I6
sF6.0
I2
sF7.0
I2
ssbsg26
I3
sg27
F54.0
sg28
Nsbsg25
(iregression_tree
decision_node
p1325
(dp1326
g2
Nsg25
Nsg26
I-1
sg27
Nsg28
(dp1327
F1.0
I2
sF2.0
I2
sF3.0
I5
sF4.0
I2
sF5.0
I11
sF7.0
I3
sF9.0
I2
sF11.0
I1
sF12.0
I3
sF13.0
I5
sF15.0
I1
sF18.0
I1
sF19.0
I2
sF22.0
I1
ssbsg26
I21
sg27
F60.0
sg28
Nsbsg25
(iregression_tree
decision_node
p1328
(dp1329
g2
Nsg25
Nsg26
I-1
sg27
Nsg28
(dp1330
F3.0
I2
sF4.0
I3
sF7.0
I3
sF8.0
I1
sF9.0
I3
sF12.0
I2
sF13.0
I4
sF15.0
I1
sF16.0
I2
sF19.0
I2
ssbsg26
I25
sg27
F69.0
sg28
Nsbsg25
(iregression_tree
decision_node
p1331
(dp1332
g2
(iregression_tree
decision_node
p1333
(dp1334
g2
(iregression_tree
decision_node
p1335
(dp1336
g2
Nsg25
Nsg26
I-1
sg27
Nsg28
(dp1337
F1.0
I1
sF3.0
I1
sF4.0
I1
sF5.0
I1
sF7.0
I1
sF9.0
I6
sF10.0
I1
sF11.0
I2
sF12.0
I3
sF15.0
I3
sF17.0
I3
sF19.0
I1
sF20.0
I1
sF21.0
I2
sF22.0
I4
sF28.0
I3
ssbsg25
(iregression_tree
decision_node
p1338
(dp1339
g2
Nsg25
Nsg26
I-1
sg27
Nsg28
(dp1340
F32.0
I1
sF2.0
I4
sF4.0
I2
sF5.0
I5
sF6.0
I2
sF7.0
I6
sF8.0
I2
sF9.0
I1
sF10.0
I4
sF13.0
I1
sF15.0
I2
sF17.0
I1
sF18.0
I4
sF24.0
I2
ssbsg26
I3
sg27
F66.0
sg28
Nsbsg25
(iregression_tree
decision_node
p1341
(dp1342
g2
(iregression_tree
decision_node
p1343
(dp1344
g2
Nsg25
Nsg26
I-1
sg27
Nsg28
(dp1345
F2.0
I2
sF3.0
I1
sF4.0
I2
sF5.0
I3
sF6.0
I2
sF7.0
I1
sF8.0
I1
sF9.0
I2
sF43.0
I1
sF15.0
I1
sF11.0
I3
sF18.0
I1
sF20.0
I3
sF21.0
I1
ssbsg25
(iregression_tree
decision_node
p1346
(dp1347
g2
Nsg25
Nsg26
I-1
sg27
Nsg28
(dp1348
F1.0
I4
sF2.0
I2
sF3.0
I1
sF4.0
I6
sF5.0
I3
sF6.0
I3
sF7.0
I11
sF8.0
I1
sF9.0
I2
sF10.0
I1
sF15.0
I1
ssbsg26
I19
sg27
F62.0
sg28
Nsbsg26
I22
sg27
F65.0
sg28
Nsbsg26
I6
sg27
F67.0
sg28
Nsbsg26
I16
sg27
F67.0
sg28
Nsbsg26
I6
sg27
F60.0
sg28
Nsbsg26
I28
sg27
F69.0
sg28
Nsbsg26
I28
sg27
F67.0
sg28
Nsbsg25
(iregression_tree
decision_node
p1349
(dp1350
g2
(iregression_tree
decision_node
p1351
(dp1352
g2
(iregression_tree
decision_node
p1353
(dp1354
g2
(iregression_tree
decision_node
p1355
(dp1356
g2
(iregression_tree
decision_node
p1357
(dp1358
g2
(iregression_tree
decision_node
p1359
(dp1360
g2
(iregression_tree
decision_node
p1361
(dp1362
g2
(iregression_tree
decision_node
p1363
(dp1364
g2
Nsg25
Nsg26
I-1
sg27
Nsg28
(dp1365
F0.0
I1
sF1.0
I2
sF3.0
I2
sF5.0
I1
sF7.0
I7
sF8.0
I3
sF10.0
I1
sF12.0
I1
sF13.0
I2
sF14.0
I1
sF19.0
I1
sF24.0
I1
ssbsg25
(iregression_tree
decision_node
p1366
(dp1367
g2
Nsg25
Nsg26
I-1
sg27
Nsg28
(dp1368
F1.0
I2
sF3.0
I1
sF4.0
I3
sF5.0
I10
sF6.0
I1
sF7.0
I7
sF8.0
I4
sF10.0
I1
sF12.0
I1
sF15.0
I1
ssbsg26
I16
sg27
F71.0
sg28
Nsbsg25
(iregression_tree
decision_node
p1369
(dp1370
g2
Nsg25
Nsg26
I-1
sg27
Nsg28
(dp1371
F32.0
I1
sF1.0
I1
sF4.0
I3
sF5.0
I1
sF6.0
I4
sF7.0
I5
sF8.0
I2
sF9.0
I1
sF10.0
I1
sF11.0
I3
sF12.0
I2
sF14.0
I4
sF18.0
I1
sF22.0
I1
ssbsg26
I9
sg27
F70.0
sg28
Nsbsg25
(iregression_tree
decision_node
p1372
(dp1373
g2
Nsg25
Nsg26
I-1
sg27
Nsg28
(dp1374
F3.0
I2
sF5.0
I3
sF6.0
I3
sF8.0
I1
sF9.0
I3
sF10.0
I1
sF11.0
I1
sF12.0
I2
sF13.0
I1
sF14.0
I2
sF16.0
I1
sF17.0
I1
sF21.0
I4
sF25.0
I1
ssbsg26
I22
sg27
F69.0
sg28
Nsbsg25
(iregression_tree
decision_node
p1375
(dp1376
g2
(iregression_tree
decision_node
p1377
(dp1378
g2
(iregression_tree
decision_node
p1379
(dp1380
g2
Nsg25
Nsg26
I-1
sg27
Nsg28
(dp1381
F2.0
I1
sF3.0
I2
sF4.0
I4
sF5.0
I3
sF6.0
I2
sF7.0
I8
sF8.0
I3
sF9.0
I2
sF10.0
I2
sF11.0
I1
sF12.0
I2
sF13.0
I1
sF14.0
I3
sF17.0
I1
sF20.0
I1
sF24.0
I2
ssbsg25
(iregression_tree
decision_node
p1382
(dp1383
g2
(iregression_tree
decision_node
p1384
(dp1385
g2
Nsg25
Nsg26
I-1
sg27
Nsg28
(dp1386
F2.0
I2
sF3.0
I1
sF5.0
I6
sF6.0
I6
sF7.0
I3
sF8.0
I4
sF9.0
I4
sF10.0
I2
sF11.0
I2
sF12.0
I1
sF13.0
I3
ssbsg25
(iregression_tree
decision_node
p1387
(dp1388
g2
Nsg25
Nsg26
I-1
sg27
Nsg28
(dp1389
F0.0
I1
sF2.0
I1
sF3.0
I3
sF4.0
I8
sF5.0
I3
sF6.0
I5
sF7.0
I2
sF8.0
I2
sF9.0
I2
sF11.0
I1
ssbsg26
I16
sg27
F69.0
sg28
Nsbsg26
I15
sg27
F65.0
sg28
Nsbsg25
(iregression_tree
decision_node
p1390
(dp1391
g2
Nsg25
Nsg26
I-1
sg27
Nsg28
(dp1392
F0.0
I4
sF1.0
I5
sF2.0
I2
sF3.0
I7
sF4.0
I7
sF5.0
I4
sF6.0
I3
sF7.0
I1
sF8.0
I2
sF9.0
I4
ssbsg26
I11
sg27
F70.0
sg28
Nsbsg26
I0
sg27
F30.0
sg28
Nsbsg25
(iregression_tree
decision_node
p1393
(dp1394
g2
Nsg25
Nsg26
I-1
sg27
Nsg28
(dp1395
F2.0
I1
sF5.0
I1
sF6.0
I4
sF7.0
I1
sF9.0
I1
sF11.0
I1
sF16.0
I10
sF19.0
I1
sF23.0
I3
ssbsg26
I15
sg27
F77.0
sg28
Nsbsg25
(iregression_tree
decision_node
p1396
(dp1397
g2
(iregression_tree
decision_node
p1398
(dp1399
g2
(iregression_tree
decision_node
p1400
(dp1401
g2
Nsg25
Nsg26
I-1
sg27
Nsg28
(dp1402
F0.0
I1
sF1.0
I5
sF2.0
I1
sF3.0
I6
sF4.0
I2
sF5.0
I2
sF6.0
I3
sF9.0
I1
sF11.0
I1
ssbsg25
(iregression_tree
decision_node
p1403
(dp1404
g2
(iregression_tree
decision_node
p1405
(dp1406
g2
Nsg25
Nsg26
I-1
sg27
Nsg28
(dp1407
F1.0
I2
sF3.0
I1
sF4.0
I3
sF5.0
I1
sF6.0
I13
sF7.0
I3
sF8.0
I2
sF10.0
I2
sF13.0
I2
sF14.0
I1
ssbsg25
(iregression_tree
decision_node
p1408
(dp1409
g2
Nsg25
Nsg26
I-1
sg27
Nsg28
(dp1410
F4.0
I3
sF5.0
I1
sF6.0
I7
sF7.0
I2
sF8.0
I4
sF12.0
I1
sF13.0
I3
sF15.0
I1
sF17.0
I1
sF18.0
I1
sF20.0
I1
sF22.0
I1
ssbsg26
I20
sg27
F26.0
sg28
Nsbsg26
I3
sg27
F28.0
sg28
Nsbsg25
(iregression_tree
decision_node
p1411
(dp1412
g2
(iregression_tree
decision_node
p1413
(dp1414
g2
(iregression_tree
decision_node
p1415
(dp1416
g2
(iregression_tree
decision_node
p1417
(dp1418
g2
Nsg25
Nsg26
I-1
sg27
Nsg28
(dp1419
F0.0
I1
sF3.0
I1
sF4.0
I1
sF6.0
I3
sF7.0
I1
sF8.0
I4
sF41.0
I2
sF10.0
I3
sF11.0
I2
sF12.0
I8
sF15.0
I3
sF18.0
I1
sF35.0
I2
sF25.0
I2
sF9.0
I1
sF36.0
I1
sF26.0
I1
sF20.0
I1
ssbsg25
(iregression_tree
decision_node
p1420
(dp1421
g2
(iregression_tree
decision_node
p1422
(dp1423
g2
(iregression_tree
decision_node
p1424
(dp1425
g2
Nsg25
Nsg26
I-1
sg27
Nsg28
(dp1426
F4.0
I1
sF37.0
I1
sF6.0
I1
sF7.0
I1
sF8.0
I2
sF9.0
I3
sF10.0
I2
sF12.0
I1
sF13.0
I1
sF15.0
I1
sF17.0
I1
sF20.0
I1
sF25.0
I1
sF29.0
I2
sF30.0
I4
ssbsg25
(iregression_tree
decision_node
p1427
(dp1428
g2
Nsg25
Nsg26
I-1
sg27
Nsg28
(dp1429
F1.0
I4
sF2.0
I1
sF3.0
I1
sF4.0
I1
sF7.0
I1
sF8.0
I1
sF9.0
I4
sF42.0
I1
sF11.0
I4
sF12.0
I2
sF13.0
I2
sF15.0
I2
sF25.0
I1
sF27.0
I1
sF10.0
I2
ssbsg26
I10
sg27
F77.0
sg28
Nsbsg25
(iregression_tree
decision_node
p1430
(dp1431
g2
(iregression_tree
decision_node
p1432
(dp1433
g2
(iregression_tree
decision_node
p1434
(dp1435
g2
Nsg25
Nsg26
I-1
sg27
Nsg28
(dp1436
F1.0
I3
sF3.0
I3
sF4.0
I6
sF5.0
I5
sF6.0
I2
sF7.0
I4
sF8.0
I1
sF10.0
I3
sF11.0
I2
sF13.0
I1
sF14.0
I3
sF19.0
I1
sF21.0
I1
sF25.0
I1
ssbsg25
(iregression_tree
decision_node
p1437
(dp1438
g2
(iregression_tree
decision_node
p1439
(dp1440
g2
(iregression_tree
decision_node
p1441
(dp1442
g2
Nsg25
Nsg26
I-1
sg27
Nsg28
(dp1443
F5.0
I1
sF6.0
I2
sF7.0
I2
sF8.0
I8
sF10.0
I1
sF11.0
I4
sF13.0
I2
sF14.0
I2
sF18.0
I1
sF20.0
I3
sF21.0
I2
ssbsg25
(iregression_tree
decision_node
p1444
(dp1445
g2
Nsg25
Nsg26
I-1
sg27
Nsg28
(dp1446
F1.0
I2
sF4.0
I3
sF6.0
I1
sF7.0
I3
sF9.0
I9
sF11.0
I1
sF12.0
I3
sF17.0
I1
ssbsg26
I11
sg27
F76.0
sg28
Nsbsg25
(iregression_tree
decision_node
p1447
(dp1448
g2
Nsg25
Nsg26
I-1
sg27
Nsg28
(dp1449
F1.0
I1
sF35.0
I1
sF6.0
I1
sF8.0
I2
sF11.0
I1
sF12.0
I4
sF13.0
I2
sF14.0
I1
sF15.0
I1
sF16.0
I2
sF21.0
I3
sF23.0
I1
sF29.0
I2
ssbsg26
I14
sg27
F78.0
sg28
Nsbsg26
I28
sg27
F71.0
sg28
Nsbsg25
(iregression_tree
decision_node
p1450
(dp1451
g2
(iregression_tree
decision_node
p1452
(dp1453
g2
Nsg25
Nsg26
I-1
sg27
Nsg28
(dp1454
F3.0
I2
sF4.0
I4
sF6.0
I2
sF7.0
I1
sF8.0
I3
sF10.0
I1
sF11.0
I3
sF12.0
I3
sF14.0
I2
sF18.0
I1
sF23.0
I1
ssbsg25
(iregression_tree
decision_node
p1455
(dp1456
g2
Nsg25
Nsg26
I-1
sg27
Nsg28
(dp1457
F1.0
I5
sF2.0
I1
sF3.0
I2
sF4.0
I2
sF5.0
I1
sF6.0
I3
sF7.0
I3
sF8.0
I3
sF9.0
I1
sF11.0
I1
ssbsg26
I18
sg27
F59.0
sg28
Nsbsg26
I4
sg27
F71.0
sg28
Nsbsg26
I24
sg27
F21.0
sg28
Nsbsg26
I6
sg27
F67.0
sg28
Nsbsg25
(iregression_tree
decision_node
p1458
(dp1459
g2
(iregression_tree
decision_node
p1460
(dp1461
g2
(iregression_tree
decision_node
p1462
(dp1463
g2
(iregression_tree
decision_node
p1464
(dp1465
g2
(iregression_tree
decision_node
p1466
(dp1467
g2
(iregression_tree
decision_node
p1468
(dp1469
g2
(iregression_tree
decision_node
p1470
(dp1471
g2
Nsg25
Nsg26
I-1
sg27
Nsg28
(dp1472
F2.0
I2
sF4.0
I4
sF5.0
I4
sF6.0
I2
sF7.0
I3
sF8.0
I3
sF10.0
I1
sF12.0
I1
sF13.0
I4
sF14.0
I7
sF20.0
I1
sF23.0
I1
sF26.0
I1
sF31.0
I1
ssbsg25
(iregression_tree
decision_node
p1473
(dp1474
g2
Nsg25
Nsg26
I-1
sg27
Nsg28
(dp1475
F32.0
I1
sF1.0
I1
sF3.0
I1
sF5.0
I3
sF9.0
I1
sF10.0
I2
sF11.0
I1
sF12.0
I2
sF13.0
I5
sF14.0
I5
sF15.0
I2
sF16.0
I2
sF17.0
I1
sF18.0
I2
sF22.0
I1
sF24.0
I2
sF25.0
I1
sF29.0
I1
sF31.0
I2
ssbsg26
I1
sg27
F178.0
sg28
Nsbsg25
(iregression_tree
decision_node
p1476
(dp1477
g2
Nsg25
Nsg26
I-1
sg27
Nsg28
(dp1478
F32.0
I2
sF35.0
I2
sF6.0
I1
sF8.0
I2
sF9.0
I2
sF12.0
I1
sF13.0
I2
sF18.0
I3
sF19.0
I1
sF20.0
I2
sF26.0
I1
sF27.0
I2
sF30.0
I1
ssbsg26
I23
sg27
F68.0
sg28
Nsbsg25
(iregression_tree
decision_node
p1479
(dp1480
g2
(iregression_tree
decision_node
p1481
(dp1482
g2
(iregression_tree
decision_node
p1483
(dp1484
g2
(iregression_tree
decision_node
p1485
(dp1486
g2
Nsg25
Nsg26
I-1
sg27
Nsg28
(dp1487
F1.0
I4
sF5.0
I1
sF7.0
I4
sF8.0
I1
sF9.0
I3
sF11.0
I2
sF12.0
I3
sF13.0
I2
sF16.0
I2
sF18.0
I2
sF20.0
I2
sF22.0
I1
ssbsg25
(iregression_tree
decision_node
p1488
(dp1489
g2
Nsg25
Nsg26
I-1
sg27
Nsg28
(dp1490
F1.0
I1
sF2.0
I1
sF3.0
I2
sF4.0
I1
sF5.0
I6
sF6.0
I10
sF7.0
I5
sF8.0
I5
sF9.0
I4
sF11.0
I2
sF17.0
I1
sF23.0
I1
ssbsg26
I23
sg27
F62.0
sg28
Nsbsg25
(iregression_tree
decision_node
p1491
(dp1492
g2
Nsg25
Nsg26
I-1
sg27
Nsg28
(dp1493
F1.0
I1
sF4.0
I1
sF6.0
I1
sF7.0
I3
sF9.0
I1
sF10.0
I3
sF11.0
I2
sF12.0
I1
sF13.0
I3
sF14.0
I2
sF15.0
I1
sF18.0
I1
sF20.0
I1
sF22.0
I3
sF23.0
I1
sF27.0
I1
ssbsg26
I25
sg27
F71.0
sg28
Nsbsg25
(iregression_tree
decision_node
p1494
(dp1495
g2
Nsg25
Nsg26
I-1
sg27
Nsg28
(dp1496
F33.0
I1
sF5.0
I2
sF10.0
I1
sF13.0
I2
sF14.0
I7
sF15.0
I2
sF16.0
I2
sF18.0
I2
sF21.0
I2
sF25.0
I1
ssbsg26
I24
sg27
F75.0
sg28
Nsbsg26
I18
sg27
F68.0
sg28
Nsbsg25
(iregression_tree
decision_node
p1497
(dp1498
g2
(iregression_tree
decision_node
p1499
(dp1500
g2
Nsg25
Nsg26
I-1
sg27
Nsg28
(dp1501
F1.0
I2
sF3.0
I1
sF5.0
I5
sF7.0
I2
sF9.0
I2
sF10.0
I4
sF39.0
I1
sF15.0
I3
sF20.0
I2
sF24.0
I2
sF26.0
I1
ssbsg25
(iregression_tree
decision_node
p1502
(dp1503
g2
Nsg25
Nsg26
I-1
sg27
Nsg28
(dp1504
F33.0
I2
sF7.0
I1
sF9.0
I2
sF10.0
I4
sF12.0
I1
sF14.0
I1
sF15.0
I2
sF20.0
I1
sF21.0
I1
sF22.0
I1
sF24.0
I2
sF26.0
I2
sF27.0
I2
sF28.0
I2
ssbsg26
I21
sg27
F47.0
sg28
Nsbsg26
I2
sg27
F83.0
sg28
Nsbsg25
(iregression_tree
decision_node
p1505
(dp1506
g2
Nsg25
Nsg26
I-1
sg27
Nsg28
(dp1507
F0.0
I1
sF4.0
I1
sF5.0
I2
sF38.0
I1
sF71.0
I1
sF9.0
I3
sF12.0
I2
sF15.0
I1
sF18.0
I1
sF19.0
I2
sF20.0
I3
sF25.0
I2
sF27.0
I2
sF29.0
I1
ssbsg26
I11
sg27
F82.0
sg28
Nsbsg25
(iregression_tree
decision_node
p1508
(dp1509
g2
Nsg25
Nsg26
I-1
sg27
Nsg28
(dp1510
F32.0
I2
sF1.0
I2
sF11.0
I5
sF4.0
I3
sF6.0
I1
sF38.0
I6
sF7.0
I5
sF43.0
I2
sF14.0
I2
sF17.0
I3
sF18.0
I1
sF19.0
I2
sF20.0
I1
sF23.0
I1
sF36.0
I1
sF27.0
I2
sF35.0
I2
ssbsg26
I17
sg27
F71.0
sg28
Nsbsg26
I25
sg27
F35.0
sg28
Nsbsg25
(iregression_tree
decision_node
p1511
(dp1512
g2
(iregression_tree
decision_node
p1513
(dp1514
g2
Nsg25
Nsg26
I-1
sg27
Nsg28
(dp1515
F0.0
I1
sF1.0
I1
sF3.0
I1
sF4.0
I2
sF6.0
I6
sF38.0
I2
sF39.0
I1
sF8.0
I2
sF10.0
I2
sF11.0
I1
sF12.0
I1
sF14.0
I2
sF47.0
I2
sF17.0
I1
sF21.0
I4
sF7.0
I1
sF28.0
I1
sF30.0
I1
ssbsg25
(iregression_tree
decision_node
p1516
(dp1517
g2
(iregression_tree
decision_node
p1518
(dp1519
g2
(iregression_tree
decision_node
p1520
(dp1521
g2
(iregression_tree
decision_node
p1522
(dp1523
g2
(iregression_tree
decision_node
p1524
(dp1525
g2
(iregression_tree
decision_node
p1526
(dp1527
g2
(iregression_tree
decision_node
p1528
(dp1529
g2
(iregression_tree
decision_node
p1530
(dp1531
g2
Nsg25
Nsg26
I-1
sg27
Nsg28
(dp1532
F3.0
I4
sF4.0
I7
sF5.0
I2
sF6.0
I6
sF8.0
I3
sF9.0
I3
sF10.0
I3
sF12.0
I3
sF13.0
I1
sF14.0
I2
sF16.0
I1
sF17.0
I3
sF31.0
I1
ssbsg25
(iregression_tree
decision_node
p1533
(dp1534
g2
Nsg25
Nsg26
I-1
sg27
Nsg28
(dp1535
F36.0
I1
sF5.0
I2
sF6.0
I1
sF7.0
I4
sF8.0
I1
sF9.0
I3
sF10.0
I5
sF11.0
I3
sF12.0
I3
sF14.0
I3
sF15.0
I4
sF18.0
I2
sF4.0
I1
sF27.0
I2
ssbsg26
I5
sg27
F56.0
sg28
Nsbsg25
(iregression_tree
decision_node
p1536
(dp1537
g2
Nsg25
Nsg26
I-1
sg27
Nsg28
(dp1538
F1.0
I1
sF43.0
I1
sF4.0
I2
sF5.0
I3
sF6.0
I1
sF7.0
I1
sF8.0
I2
sF47.0
I1
sF10.0
I4
sF11.0
I2
sF12.0
I1
sF13.0
I1
sF15.0
I1
sF16.0
I1
sF17.0
I1
sF21.0
I1
sF22.0
I4
sF24.0
I2
sF26.0
I1
sF27.0
I1
ssbsg26
I25
sg27
F66.0
sg28
Nsbsg25
(iregression_tree
decision_node
p1539
(dp1540
g2
(iregression_tree
decision_node
p1541
(dp1542
g2
Nsg25
Nsg26
I-1
sg27
Nsg28
(dp1543
F1.0
I1
sF3.0
I1
sF4.0
I1
sF5.0
I5
sF6.0
I4
sF7.0
I7
sF8.0
I1
sF9.0
I1
ssbsg25
(iregression_tree
decision_node
p1544
(dp1545
g2
Nsg25
Nsg26
I-1
sg27
Nsg28
(dp1546
F2.0
I3
sF5.0
I6
sF6.0
I2
sF8.0
I1
sF9.0
I1
sF11.0
I2
sF14.0
I1
sF16.0
I1
sF17.0
I3
sF20.0
I1
ssbsg26
I2
sg27
F75.0
sg28
Nsbsg26
I16
sg27
F77.0
sg28
Nsbsg25
(iregression_tree
decision_node
p1547
(dp1548
g2
(iregression_tree
decision_node
p1549
(dp1550
g2
Nsg25
Nsg26
I-1
sg27
Nsg28
(dp1551
F6.0
I2
sF7.0
I2
sF8.0
I7
sF10.0
I3
sF11.0
I4
sF17.0
I1
sF20.0
I1
sF22.0
I1
sF27.0
I1
ssbsg25
(iregression_tree
decision_node
p1552
(dp1553
g2
(iregression_tree
decision_node
p1554
(dp1555
g2
Nsg25
Nsg26
I-1
sg27
Nsg28
(dp1556
F0.0
I1
sF1.0
I3
sF4.0
I9
sF5.0
I3
sF6.0
I4
sF7.0
I1
sF8.0
I1
ssbsg25
(iregression_tree
decision_node
p1557
(dp1558
g2
Nsg25
Nsg26
I-1
sg27
Nsg28
(dp1559
F2.0
I1
sF3.0
I2
sF4.0
I2
sF5.0
I4
sF7.0
I3
sF8.0
I1
sF9.0
I3
sF10.0
I1
sF11.0
I2
sF13.0
I2
sF14.0
I2
sF16.0
I1
ssbsg26
I0
sg27
F26.0
sg28
Nsbsg26
I10
sg27
F68.0
sg28
Nsbsg26
I13
sg27
F70.0
sg28
Nsbsg25
(iregression_tree
decision_node
p1560
(dp1561
g2
(iregression_tree
decision_node
p1562
(dp1563
g2
(iregression_tree
decision_node
p1564
(dp1565
g2
Nsg25
Nsg26
I-1
sg27
Nsg28
(dp1566
F3.0
I1
sF5.0
I1
sF6.0
I3
sF7.0
I2
sF8.0
I4
sF9.0
I2
sF10.0
I1
sF11.0
I1
sF12.0
I3
sF13.0
I2
sF14.0
I2
sF15.0
I1
sF17.0
I2
sF25.0
I1
ssbsg25
(iregression_tree
decision_node
p1567
(dp1568
g2
Nsg25
Nsg26
I-1
sg27
Nsg28
(dp1569
F32.0
I1
sF5.0
I1
sF7.0
I2
sF8.0
I3
sF9.0
I4
sF11.0
I1
sF13.0
I1
sF20.0
I2
sF21.0
I2
sF39.0
I1
sF25.0
I3
sF28.0
I1
sF29.0
I2
sF30.0
I1
sF31.0
I2
ssbsg26
I7
sg27
F62.0
sg28
Nsbsg25
(iregression_tree
decision_node
p1570
(dp1571
g2
Nsg25
Nsg26
I-1
sg27
Nsg28
(dp1572
F0.0
I2
sF1.0
I1
sF4.0
I1
sF6.0
I2
sF7.0
I7
sF8.0
I1
sF9.0
I2
sF11.0
I2
sF12.0
I2
sF15.0
I2
sF20.0
I1
ssbsg26
I7
sg27
F70.0
sg28
Nsbsg26
I20
sg27
F70.0
sg28
Nsbsg25
(iregression_tree
decision_node
p1573
(dp1574
g2
(iregression_tree
decision_node
p1575
(dp1576
g2
(iregression_tree
decision_node
p1577
(dp1578
g2
Nsg25
Nsg26
I-1
sg27
Nsg28
(dp1579
F0.0
I1
sF1.0
I5
sF3.0
I2
sF4.0
I2
sF5.0
I2
sF6.0
I1
sF7.0
I2
sF11.0
I5
sF13.0
I2
sF14.0
I1
sF15.0
I1
sF17.0
I1
ssbsg25
(iregression_tree
decision_node
p1580
(dp1581
g2
Nsg25
Nsg26
I-1
sg27
Nsg28
(dp1582
F7.0
I1
sF8.0
I2
sF9.0
I4
sF10.0
I1
sF11.0
I6
sF12.0
I3
sF13.0
I1
sF18.0
I2
sF29.0
I1
ssbsg26
I19
sg27
F53.0
sg28
Nsbsg25
(iregression_tree
decision_node
p1583
(dp1584
g2
(iregression_tree
decision_node
p1585
(dp1586
g2
(iregression_tree
decision_node
p1587
(dp1588
g2
Nsg25
Nsg26
I-1
sg27
Nsg28
(dp1589
F1.0
I1
sF4.0
I1
sF5.0
I6
sF6.0
I1
sF7.0
I1
sF8.0
I6
sF10.0
I1
sF12.0
I1
sF13.0
I4
sF46.0
I1
sF15.0
I1
sF16.0
I3
sF17.0
I1
sF14.0
I4
ssbsg25
(iregression_tree
decision_node
p1590
(dp1591
g2
Nsg25
Nsg26
I-1
sg27
Nsg28
(dp1592
F35.0
I1
sF6.0
I1
sF8.0
I2
sF9.0
I1
sF11.0
I1
sF13.0
I1
sF14.0
I3
sF16.0
I2
sF17.0
I2
sF18.0
I4
sF19.0
I2
sF21.0
I1
sF22.0
I2
sF25.0
I2
sF29.0
I1
ssbsg26
I12
sg27
F71.0
sg28
Nsbsg25
(iregression_tree
decision_node
p1593
(dp1594
g2
Nsg25
Nsg26
I-1
sg27
Nsg28
(dp1595
F32.0
I3
sF35.0
I1
sF6.0
I1
sF7.0
I2
sF45.0
I1
sF14.0
I2
sF15.0
I1
sF16.0
I2
sF17.0
I3
sF20.0
I1
sF26.0
I1
sF28.0
I3
ssbsg26
I18
sg27
F75.0
sg28
Nsbsg26
I13
sg27
F68.0
sg28
Nsbsg26
I24
sg27
F71.0
sg28
Nsbsg25
(iregression_tree
decision_node
p1596
(dp1597
g2
(iregression_tree
decision_node
p1598
(dp1599
g2
(iregression_tree
decision_node
p1600
(dp1601
g2
Nsg25
Nsg26
I-1
sg27
Nsg28
(dp1602
F0.0
I1
sF3.0
I2
sF4.0
I4
sF5.0
I2
sF6.0
I5
sF7.0
I2
sF9.0
I5
sF10.0
I2
sF11.0
I1
sF12.0
I1
sF13.0
I1
sF14.0
I1
sF17.0
I3
sF19.0
I2
sF23.0
I1
ssbsg25
(iregression_tree
decision_node
p1603
(dp1604
g2
(iregression_tree
decision_node
p1605
(dp1606
g2
Nsg25
Nsg26
I-1
sg27
Nsg28
(dp1607
F0.0
I1
sF1.0
I6
sF2.0
I3
sF3.0
I5
sF4.0
I2
sF5.0
I1
sF6.0
I2
sF8.0
I2
ssbsg25
(iregression_tree
decision_node
p1608
(dp1609
g2
Nsg25
Nsg26
I-1
sg27
Nsg28
(dp1610
F1.0
I3
sF3.0
I5
sF4.0
I1
sF5.0
I1
sF7.0
I1
sF8.0
I1
sF9.0
I2
sF10.0
I1
sF11.0
I4
sF16.0
I2
ssbsg26
I15
sg27
F69.0
sg28
Nsbsg26
I1
sg27
F180.0
sg28
Nsbsg25
(iregression_tree
decision_node
p1611
(dp1612
g2
(iregression_tree
decision_node
p1613
(dp1614
g2
(iregression_tree
decision_node
p1615
(dp1616
g2
(iregression_tree
decision_node
p1617
(dp1618
g2
Nsg25
Nsg26
I-1
sg27
Nsg28
(dp1619
F2.0
I1
sF3.0
I3
sF4.0
I2
sF5.0
I4
sF6.0
I2
sF7.0
I4
sF9.0
I1
sF10.0
I2
sF12.0
I1
sF14.0
I1
ssbsg25
(iregression_tree
decision_node
p1620
(dp1621
g2
Nsg25
Nsg26
I-1
sg27
Nsg28
(dp1622
F4.0
I1
sF5.0
I2
sF6.0
I3
sF7.0
I3
sF8.0
I1
sF9.0
I3
sF10.0
I1
sF11.0
I2
sF12.0
I4
sF14.0
I1
ssbsg26
I3
sg27
F62.0
sg28
Nsbsg25
(iregression_tree
decision_node
p1623
(dp1624
g2
Nsg25
Nsg26
I-1
sg27
Nsg28
(dp1625
F1.0
I1
sF7.0
I2
sF10.0
I7
sF13.0
I7
sF15.0
I3
sF18.0
I1
ssbsg26
I25
sg27
F72.0
sg28
Nsbsg25
(iregression_tree
decision_node
p1626
(dp1627
g2
Nsg25
Nsg26
I-1
sg27
Nsg28
(dp1628
F1.0
I1
sF3.0
I2
sF5.0
I1
sF7.0
I2
sF10.0
I1
sF11.0
I5
sF14.0
I2
sF16.0
I2
sF22.0
I2
sF23.0
I2
sF26.0
I1
sF27.0
I2
sF29.0
I1
sF30.0
I2
ssbsg26
I9
sg27
F71.0
sg28
Nsbsg26
I23
sg27
F65.0
sg28
Nsbsg26
I17
sg27
F83.0
sg28
Nsbsg26
I24
sg27
F23.0
sg28
Nsbsg26
I17
sg27
F72.0
sg28
Nsbsg26
I20
sg27
F29.0
sg28
Nsbsg26
I29
sg27
F71.0
sg28
Nsbsg25
(iregression_tree
decision_node
p1629
(dp1630
g2
(iregression_tree
decision_node
p1631
(dp1632
g2
(iregression_tree
decision_node
p1633
(dp1634
g2
(iregression_tree
decision_node
p1635
(dp1636
g2
(iregression_tree
decision_node
p1637
(dp1638
g2
(iregression_tree
decision_node
p1639
(dp1640
g2
(iregression_tree
decision_node
p1641
(dp1642
g2
Nsg25
Nsg26
I-1
sg27
Nsg28
(dp1643
F0.0
I1
sF1.0
I1
sF11.0
I1
sF33.0
I1
sF8.0
I1
sF9.0
I2
sF10.0
I2
sF7.0
I6
sF12.0
I8
sF15.0
I3
sF17.0
I2
sF18.0
I1
sF20.0
I1
sF28.0
I1
sF31.0
I1
ssbsg25
(iregression_tree
decision_node
p1644
(dp1645
g2
(iregression_tree
decision_node
p1646
(dp1647
g2
(iregression_tree
decision_node
p1648
(dp1649
g2
Nsg25
Nsg26
I-1
sg27
Nsg28
(dp1650
F1.0
I3
sF4.0
I1
sF5.0
I1
sF6.0
I3
sF7.0
I3
sF9.0
I2
sF11.0
I2
sF13.0
I1
sF17.0
I3
sF19.0
I1
sF20.0
I3
sF23.0
I1
sF25.0
I1
sF26.0
I1
sF29.0
I1
ssbsg25
(iregression_tree
decision_node
p1651
(dp1652
g2
Nsg25
Nsg26
I-1
sg27
Nsg28
(dp1653
F33.0
I1
sF43.0
I1
sF6.0
I1
sF9.0
I1
sF10.0
I1
sF11.0
I2
sF12.0
I1
sF46.0
I2
sF15.0
I1
sF16.0
I1
sF17.0
I3
sF19.0
I4
sF52.0
I1
sF14.0
I3
sF25.0
I1
sF21.0
I2
ssbsg26
I29
sg27
F76.0
sg28
Nsbsg25
(iregression_tree
decision_node
p1654
(dp1655
g2
Nsg25
Nsg26
I-1
sg27
Nsg28
(dp1656
F33.0
I2
sF36.0
I2
sF37.0
I1
sF40.0
I2
sF9.0
I1
sF12.0
I1
sF14.0
I2
sF15.0
I6
sF17.0
I1
sF20.0
I1
sF21.0
I1
sF22.0
I1
sF25.0
I1
sF27.0
I1
ssbsg26
I25
sg27
F68.0
sg28
Nsbsg26
I2
sg27
F69.0
sg28
Nsbsg25
(iregression_tree
decision_node
p1657
(dp1658
g2
Nsg25
Nsg26
I-1
sg27
Nsg28
(dp1659
F1.0
I6
sF4.0
I1
sF8.0
I3
sF10.0
I5
sF11.0
I1
sF12.0
I2
sF13.0
I5
sF14.0
I1
sF17.0
I1
sF19.0
I2
sF26.0
I1
ssbsg26
I23
sg27
F73.0
sg28
Nsbsg25
(iregression_tree
decision_node
p1660
(dp1661
g2
(iregression_tree
decision_node
p1662
(dp1663
g2
Nsg25
Nsg26
I-1
sg27
Nsg28
(dp1664
F1.0
I1
sF8.0
I2
sF9.0
I1
sF11.0
I1
sF12.0
I2
sF14.0
I4
sF15.0
I2
sF16.0
I1
sF17.0
I3
sF19.0
I1
sF21.0
I1
sF26.0
I2
sF31.0
I2
ssbsg25
(iregression_tree
decision_node
p1665
(dp1666
g2
Nsg25
Nsg26
I-1
sg27
Nsg28
(dp1667
F32.0
I1
sF34.0
I2
sF35.0
I2
sF36.0
I2
sF7.0
I2
sF40.0
I2
sF41.0
I3
sF10.0
I1
sF43.0
I1
sF12.0
I3
sF13.0
I4
sF14.0
I1
sF15.0
I2
sF11.0
I1
sF18.0
I4
sF19.0
I1
sF22.0
I5
sF26.0
I1
sF27.0
I1
sF28.0
I1
sF31.0
I1
ssbsg26
I14
sg27
F68.0
sg28
Nsbsg26
I8
sg27
F70.0
sg28
Nsbsg25
(iregression_tree
decision_node
p1668
(dp1669
g2
(iregression_tree
decision_node
p1670
(dp1671
g2
Nsg25
Nsg26
I-1
sg27
Nsg28
(dp1672
F0.0
I2
sF1.0
I4
sF7.0
I2
sF8.0
I5
sF9.0
I2
sF13.0
I2
sF14.0
I2
sF16.0
I1
sF19.0
I1
ssbsg25
(iregression_tree
decision_node
p1673
(dp1674
g2
Nsg25
Nsg26
I-1
sg27
Nsg28
(dp1675
F1.0
I2
sF6.0
I3
sF7.0
I1
sF8.0
I2
sF9.0
I1
sF10.0
I1
sF12.0
I3
sF13.0
I2
sF16.0
I1
sF18.0
I2
sF20.0
I1
sF25.0
I2
sF27.0
I2
sF28.0
I1
ssbsg26
I14
sg27
F74.0
sg28
Nsbsg26
I13
sg27
F74.0
sg28
Nsbsg25
(iregression_tree
decision_node
p1676
(dp1677
g2
Nsg25
Nsg26
I-1
sg27
Nsg28
(dp1678
F32.0
I1
sF1.0
I5
sF2.0
I2
sF4.0
I7
sF5.0
I3
sF7.0
I1
sF8.0
I5
sF9.0
I7
sF12.0
I2
sF13.0
I1
sF15.0
I2
sF16.0
I1
sF17.0
I2
sF24.0
I1
ssbsg26
I21
sg27
F75.0
sg28
Nsbsg25
(iregression_tree
decision_node
p1679
(dp1680
g2
(iregression_tree
decision_node
p1681
(dp1682
g2
(iregression_tree
decision_node
p1683
(dp1684
g2
Nsg25
Nsg26
I-1
sg27
Nsg28
(dp1685
F1.0
I1
sF4.0
I2
sF5.0
I1
sF6.0
I6
sF8.0
I2
sF9.0
I2
sF10.0
I3
sF11.0
I1
sF12.0
I3
sF15.0
I3
sF19.0
I3
sF20.0
I3
sF24.0
I3
sF25.0
I1
sF28.0
I1
ssbsg25
(iregression_tree
decision_node
p1686
(dp1687
g2
(iregression_tree
decision_node
p1688
(dp1689
g2
Nsg25
Nsg26
I-1
sg27
Nsg28
(dp1690
F35.0
I1
sF36.0
I2
sF6.0
I1
sF10.0
I1
sF44.0
I2
sF16.0
I2
sF19.0
I3
sF20.0
I2
sF22.0
I1
sF24.0
I2
sF25.0
I2
sF26.0
I3
sF29.0
I1
ssbsg25
(iregression_tree
decision_node
p1691
(dp1692
g2
Nsg25
Nsg26
I-1
sg27
Nsg28
(dp1693
F0.0
I1
sF34.0
I2
sF5.0
I1
sF6.0
I3
sF8.0
I1
sF9.0
I1
sF10.0
I1
sF11.0
I1
sF12.0
I1
sF13.0
I1
sF14.0
I7
sF15.0
I2
sF16.0
I1
sF17.0
I5
sF18.0
I1
sF20.0
I1
sF23.0
I1
sF24.0
I2
sF26.0
I1
sF31.0
I2
ssbsg26
I17
sg27
F69.0
sg28
Nsbsg26
I6
sg27
F53.0
sg28
Nsbsg25
(iregression_tree
decision_node
p1694
(dp1695
g2
Nsg25
Nsg26
I-1
sg27
Nsg28
(dp1696
F32.0
I5
sF33.0
I2
sF37.0
I1
sF51.0
I1
sF12.0
I2
sF11.0
I1
sF44.0
I3
sF13.0
I3
sF14.0
I1
sF15.0
I2
sF18.0
I1
sF19.0
I1
sF20.0
I2
sF21.0
I1
sF26.0
I1
sF38.0
I3
sF61.0
I1
sF31.0
I5
ssbsg26
I21
sg27
F66.0
sg28
Nsbsg26
I1
sg27
F185.0
sg28
Nsbsg26
I28
sg27
F73.0
sg28
Nsbsg26
I28
sg27
F70.0
sg28
Nsbsg25
(iregression_tree
decision_node
p1697
(dp1698
g2
(iregression_tree
decision_node
p1699
(dp1700
g2
(iregression_tree
decision_node
p1701
(dp1702
g2
(iregression_tree
decision_node
p1703
(dp1704
g2
(iregression_tree
decision_node
p1705
(dp1706
g2
Nsg25
Nsg26
I-1
sg27
Nsg28
(dp1707
F64.0
I1
sF33.0
I1
sF35.0
I1
sF69.0
I1
sF11.0
I1
sF82.0
I3
sF14.0
I1
sF15.0
I3
sF16.0
I1
sF24.0
I1
sF50.0
I3
sF20.0
I1
sF86.0
I1
sF56.0
I2
sF29.0
I1
ssbsg25
(iregression_tree
decision_node
p1708
(dp1709
g2
(iregression_tree
decision_node
p1710
(dp1711
g2
Nsg25
Nsg26
I-1
sg27
Nsg28
(dp1712
F1.0
I1
sF36.0
I3
sF39.0
I1
sF40.0
I1
sF9.0
I1
sF45.0
I2
sF15.0
I2
sF17.0
I3
sF20.0
I1
sF21.0
I2
sF25.0
I1
sF59.0
I1
sF60.0
I1
sF29.0
I2
ssbsg25
(iregression_tree
decision_node
p1713
(dp1714
g2
Nsg25
Nsg26
I-1
sg27
Nsg28
(dp1715
F64.0
I1
sF6.0
I1
sF9.0
I1
sF10.0
I1
sF11.0
I4
sF12.0
I2
sF46.0
I2
sF16.0
I2
sF18.0
I1
sF19.0
I2
sF22.0
I1
sF29.0
I3
ssbsg26
I16
sg27
F71.0
sg28
Nsbsg26
I22
sg27
F68.0
sg28
Nsbsg25
(iregression_tree
decision_node
p1716
(dp1717
g2
(iregression_tree
decision_node
p1718
(dp1719
g2
(iregression_tree
decision_node
p1720
(dp1721
g2
(iregression_tree
decision_node
p1722
(dp1723
g2
Nsg25
Nsg26
I-1
sg27
Nsg28
(dp1724
F1.0
I10
sF34.0
I1
sF6.0
I1
sF7.0
I2
sF9.0
I2
sF10.0
I1
sF11.0
I1
sF13.0
I4
sF17.0
I2
sF18.0
I3
sF20.0
I4
sF22.0
I1
sF39.0
I1
ssbsg25
(iregression_tree
decision_node
p1725
(dp1726
g2
(iregression_tree
decision_node
p1727
(dp1728
g2
Nsg25
Nsg26
I-1
sg27
Nsg28
(dp1729
F8.0
I2
sF43.0
I2
sF15.0
I1
sF16.0
I1
sF49.0
I1
sF18.0
I1
sF51.0
I1
sF20.0
I4
sF21.0
I2
sF22.0
I1
sF55.0
I1
sF24.0
I2
sF26.0
I1
sF27.0
I2
ssbsg25
(iregression_tree
decision_node
p1730
(dp1731
g2
(iregression_tree
decision_node
p1732
(dp1733
g2
Nsg25
Nsg26
I-1
sg27
Nsg28
(dp1734
F0.0
I4
sF32.0
I1
sF6.0
I1
sF1.0
I2
sF8.0
I2
sF10.0
I5
sF11.0
I2
sF12.0
I2
sF13.0
I2
sF14.0
I3
sF15.0
I1
sF18.0
I2
sF19.0
I2
sF20.0
I1
sF56.0
I1
sF7.0
I2
sF26.0
I1
ssbsg25
(iregression_tree
decision_node
p1735
(dp1736
g2
(iregression_tree
decision_node
p1737
(dp1738
g2
Nsg25
Nsg26
I-1
sg27
Nsg28
(dp1739
F0.0
I2
sF5.0
I1
sF7.0
I1
sF8.0
I1
sF9.0
I2
sF14.0
I2
sF15.0
I1
sF18.0
I7
sF20.0
I1
sF21.0
I1
sF22.0
I1
sF27.0
I1
sF29.0
I1
ssbsg25
(iregression_tree
decision_node
p1740
(dp1741
g2
Nsg25
Nsg26
I-1
sg27
Nsg28
(dp1742
F19.0
I1
sF33.0
I2
sF4.0
I1
sF37.0
I2
sF39.0
I1
sF8.0
I2
sF12.0
I4
sF1.0
I1
sF44.0
I1
sF46.0
I1
sF16.0
I1
sF51.0
I1
sF21.0
I2
sF22.0
I3
sF25.0
I1
sF28.0
I2
sF29.0
I1
sF31.0
I3
ssbsg26
I14
sg27
F69.0
sg28
Nsbsg26
I15
sg27
F72.0
sg28
Nsbsg26
I7
sg27
F61.0
sg28
Nsbsg26
I6
sg27
F61.0
sg28
Nsbsg25
(iregression_tree
decision_node
p1743
(dp1744
g2
(iregression_tree
decision_node
p1745
(dp1746
g2
(iregression_tree
decision_node
p1747
(dp1748
g2
Nsg25
Nsg26
I-1
sg27
Nsg28
(dp1749
F32.0
I1
sF1.0
I1
sF35.0
I1
sF36.0
I2
sF40.0
I1
sF42.0
I1
sF11.0
I1
sF44.0
I2
sF47.0
I2
sF17.0
I2
sF18.0
I3
sF22.0
I2
sF25.0
I2
ssbsg25
(iregression_tree
decision_node
p1750
(dp1751
g2
(iregression_tree
decision_node
p1752
(dp1753
g2
Nsg25
Nsg26
I-1
sg27
Nsg28
(dp1754
F34.0
I1
sF5.0
I2
sF8.0
I2
sF41.0
I2
sF10.0
I2
sF43.0
I1
sF13.0
I1
sF14.0
I2
sF15.0
I4
sF17.0
I2
sF19.0
I1
sF9.0
I1
sF22.0
I2
sF23.0
I2
sF24.0
I2
sF25.0
I2
sF26.0
I3
sF28.0
I2
sF42.0
I1
ssbsg25
(iregression_tree
decision_node
p1755
(dp1756
g2
(iregression_tree
decision_node
p1757
(dp1758
g2
Nsg25
Nsg26
I-1
sg27
Nsg28
(dp1759
F0.0
I4
sF1.0
I6
sF8.0
I4
sF10.0
I2
sF11.0
I1
sF14.0
I4
sF15.0
I3
sF18.0
I1
sF20.0
I1
sF22.0
I1
sF24.0
I1
sF26.0
I1
ssbsg25
(iregression_tree
decision_node
p1760
(dp1761
g2
Nsg25
Nsg26
I-1
sg27
Nsg28
(dp1762
F33.0
I1
sF35.0
I1
sF8.0
I2
sF9.0
I1
sF11.0
I3
sF12.0
I3
sF17.0
I1
sF19.0
I2
sF20.0
I2
sF24.0
I4
sF30.0
I1
ssbsg26
I12
sg27
F67.0
sg28
Nsbsg26
I4
sg27
F67.0
sg28
Nsbsg26
I10
sg27
F49.0
sg28
Nsbsg25
(iregression_tree
decision_node
p1763
(dp1764
g2
(iregression_tree
decision_node
p1765
(dp1766
g2
(iregression_tree
decision_node
p1767
(dp1768
g2
(iregression_tree
decision_node
p1769
(dp1770
g2
Nsg25
Nsg26
I-1
sg27
Nsg28
(dp1771
F1.0
I1
sF7.0
I1
sF8.0
I1
sF9.0
I5
sF43.0
I2
sF15.0
I3
sF18.0
I1
sF19.0
I1
sF21.0
I1
sF23.0
I4
sF26.0
I3
ssbsg25
(iregression_tree
decision_node
p1772
(dp1773
g2
(iregression_tree
decision_node
p1774
(dp1775
g2
Nsg25
Nsg26
I-1
sg27
Nsg28
(dp1776
F35.0
I3
sF39.0
I2
sF40.0
I2
sF9.0
I1
sF43.0
I1
sF59.0
I1
sF19.0
I1
sF52.0
I1
sF21.0
I3
sF25.0
I1
sF26.0
I1
sF27.0
I1
sF28.0
I2
sF31.0
I1
ssbsg25
(iregression_tree
decision_node
p1777
(dp1778
g2
Nsg25
Nsg26
I-1
sg27
Nsg28
(dp1779
F0.0
I1
sF35.0
I4
sF39.0
I1
sF10.0
I1
sF12.0
I2
sF45.0
I1
sF14.0
I1
sF15.0
I1
sF18.0
I4
sF19.0
I1
sF20.0
I2
sF21.0
I1
sF22.0
I1
sF23.0
I1
sF24.0
I4
sF26.0
I4
sF29.0
I1
ssbsg26
I19
sg27
F68.0
sg28
Nsbsg26
I20
sg27
F66.0
sg28
Nsbsg25
(iregression_tree
decision_node
p1780
(dp1781
g2
(iregression_tree
decision_node
p1782
(dp1783
g2
Nsg25
Nsg26
I-1
sg27
Nsg28
(dp1784
F32.0
I1
sF37.0
I1
sF39.0
I1
sF9.0
I1
sF11.0
I1
sF12.0
I2
sF14.0
I2
sF47.0
I1
sF17.0
I1
sF18.0
I1
sF20.0
I3
sF21.0
I4
sF54.0
I1
sF23.0
I2
sF24.0
I3
sF29.0
I1
sF44.0
I1
ssbsg25
(iregression_tree
decision_node
p1785
(dp1786
g2
(iregression_tree
decision_node
p1787
(dp1788
g2
Nsg25
Nsg26
I-1
sg27
Nsg28
(dp1789
F1.0
I7
sF33.0
I2
sF8.0
I1
sF10.0
I1
sF11.0
I1
sF12.0
I2
sF13.0
I1
sF14.0
I3
sF15.0
I1
sF16.0
I2
sF17.0
I2
sF19.0
I6
sF22.0
I1
sF25.0
I1
sF29.0
I1
ssbsg25
(iregression_tree
decision_node
p1790
(dp1791
g2
(iregression_tree
decision_node
p1792
(dp1793
g2
Nsg25
Nsg26
I-1
sg27
Nsg28
(dp1794
F32.0
I1
sF1.0
I1
sF38.0
I1
sF40.0
I1
sF10.0
I1
sF11.0
I1
sF46.0
I1
sF16.0
I3
sF17.0
I1
sF18.0
I4
sF20.0
I4
sF21.0
I5
sF22.0
I2
sF24.0
I1
sF31.0
I2
sF29.0
I1
sF53.0
I2
ssbsg25
(iregression_tree
decision_node
p1795
(dp1796
g2
Nsg25
Nsg26
I-1
sg27
Nsg28
(dp1797
F1.0
I2
sF5.0
I1
sF6.0
I1
sF11.0
I3
sF12.0
I1
sF14.0
I3
sF15.0
I2
sF16.0
I1
sF18.0
I1
sF19.0
I1
sF21.0
I1
sF22.0
I2
sF26.0
I3
ssbsg26
I5
sg27
F67.0
sg28
Nsbsg26
I16
sg27
F64.0
sg28
Nsbsg26
I16
sg27
F55.0
sg28
Nsbsg26
I7
sg27
F68.0
sg28
Nsbsg25
(iregression_tree
decision_node
p1798
(dp1799
g2
(iregression_tree
decision_node
p1800
(dp1801
g2
Nsg25
Nsg26
I-1
sg27
Nsg28
(dp1802
F0.0
I3
sF34.0
I2
sF38.0
I5
sF8.0
I1
sF9.0
I2
sF42.0
I2
sF13.0
I2
sF15.0
I5
sF17.0
I1
sF18.0
I1
sF20.0
I1
sF22.0
I1
sF23.0
I1
sF24.0
I2
sF28.0
I1
sF10.0
I1
sF30.0
I1
ssbsg25
(iregression_tree
decision_node
p1803
(dp1804
g2
(iregression_tree
decision_node
p1805
(dp1806
g2
Nsg25
Nsg26
I-1
sg27
Nsg28
(dp1807
F1.0
I1
sF36.0
I1
sF10.0
I1
sF13.0
I2
sF14.0
I1
sF48.0
I1
sF17.0
I1
sF50.0
I2
sF19.0
I5
sF21.0
I1
sF23.0
I2
sF25.0
I1
sF26.0
I2
sF29.0
I1
ssbsg25
(iregression_tree
decision_node
p1808
(dp1809
g2
(iregression_tree
decision_node
p1810
(dp1811
g2
Nsg25
Nsg26
I-1
sg27
Nsg28
(dp1812
F45.0
I2
sF17.0
I1
sF42.0
I3
sF43.0
I1
sF13.0
I1
sF50.0
I1
sF46.0
I5
sF47.0
I1
sF48.0
I2
sF49.0
I1
sF18.0
I1
sF26.0
I1
sF58.0
I1
ssbsg25
(iregression_tree
decision_node
p1813
(dp1814
g2
Nsg25
Nsg26
I-1
sg27
Nsg28
(dp1815
F16.0
I3
sF38.0
I2
sF1.0
I1
sF40.0
I3
sF41.0
I1
sF10.0
I1
sF12.0
I2
sF47.0
I2
sF48.0
I1
sF49.0
I1
sF19.0
I1
sF20.0
I1
sF21.0
I2
sF22.0
I2
sF23.0
I1
sF24.0
I2
sF25.0
I4
ssbsg26
I18
sg27
F73.0
sg28
Nsbsg26
I2
sg27
F74.0
sg28
Nsbsg26
I4
sg27
F73.0
sg28
Nsbsg26
I23
sg27
F70.0
sg28
Nsbsg26
I7
sg27
F48.0
sg28
Nsbsg26
I29
sg27
F75.0
sg28
Nsbsg25
(iregression_tree
decision_node
p1816
(dp1817
g2
Nsg25
Nsg26
I-1
sg27
Nsg28
(dp1818
F8.0
I1
sF9.0
I3
sF12.0
I2
sF14.0
I1
sF15.0
I2
sF18.0
I1
sF19.0
I3
sF22.0
I3
sF23.0
I1
sF25.0
I1
sF30.0
I1
sF34.0
I1
sF36.0
I2
sF37.0
I1
sF38.0
I1
sF39.0
I1
sF40.0
I3
sF41.0
I5
sF43.0
I1
sF44.0
I2
sF46.0
I1
sF48.0
I3
sF58.0
I1
ssbsg26
I10
sg27
F86.0
sg28
Nsbsg26
I24
sg27
F27.0
sg28
Nsbsg25
(iregression_tree
decision_node
p1819
(dp1820
g2
(iregression_tree
decision_node
p1821
(dp1822
g2
(iregression_tree
decision_node
p1823
(dp1824
g2
Nsg25
Nsg26
I-1
sg27
Nsg28
(dp1825
F1.0
I4
sF35.0
I1
sF36.0
I1
sF39.0
I1
sF10.0
I2
sF11.0
I1
sF44.0
I1
sF13.0
I1
sF15.0
I1
sF48.0
I2
sF18.0
I2
sF20.0
I1
sF54.0
I1
sF23.0
I1
sF24.0
I1
sF25.0
I5
sF26.0
I3
sF28.0
I1
sF31.0
I1
ssbsg25
(iregression_tree
decision_node
p1826
(dp1827
g2
(iregression_tree
decision_node
p1828
(dp1829
g2
Nsg25
Nsg26
I-1
sg27
Nsg28
(dp1830
F39.0
I2
sF12.0
I1
sF19.0
I4
sF21.0
I1
sF22.0
I5
sF23.0
I1
sF24.0
I1
sF25.0
I1
sF27.0
I4
sF28.0
I2
sF29.0
I1
ssbsg25
(iregression_tree
decision_node
p1831
(dp1832
g2
(iregression_tree
decision_node
p1833
(dp1834
g2
Nsg25
Nsg26
I-1
sg27
Nsg28
(dp1835
F13.0
I1
sF16.0
I1
sF21.0
I1
sF22.0
I1
sF23.0
I3
sF24.0
I2
sF26.0
I1
sF30.0
I1
sF31.0
I1
sF32.0
I1
sF34.0
I1
sF36.0
I2
sF46.0
I1
sF47.0
I2
sF53.0
I5
sF60.0
I1
sF61.0
I2
sF62.0
I1
sF64.0
I1
sF68.0
I3
sF76.0
I1
sF80.0
I1
ssbsg25
(iregression_tree
decision_node
p1836
(dp1837
g2
(iregression_tree
decision_node
p1838
(dp1839
g2
(iregression_tree
decision_node
p1840
(dp1841
g2
Nsg25
Nsg26
I-1
sg27
Nsg28
(dp1842
F1.0
I1
sF11.0
I2
sF12.0
I3
sF14.0
I2
sF15.0
I2
sF16.0
I2
sF52.0
I1
sF53.0
I1
sF22.0
I4
sF23.0
I1
sF25.0
I2
sF26.0
I3
sF28.0
I2
sF29.0
I1
sF20.0
I1
ssbsg25
(iregression_tree
decision_node
p1843
(dp1844
g2
(iregression_tree
decision_node
p1845
(dp1846
g2
Nsg25
Nsg26
I-1
sg27
Nsg28
(dp1847
F32.0
I1
sF1.0
I2
sF34.0
I1
sF38.0
I2
sF39.0
I1
sF41.0
I1
sF13.0
I2
sF46.0
I1
sF16.0
I1
sF51.0
I1
sF22.0
I2
sF23.0
I2
sF24.0
I1
sF25.0
I3
sF27.0
I1
sF29.0
I3
sF30.0
I2
ssbsg25
(iregression_tree
decision_node
p1848
(dp1849
g2
Nsg25
Nsg26
I-1
sg27
Nsg28
(dp1850
F10.0
I1
sF14.0
I1
sF17.0
I1
sF21.0
I1
sF25.0
I1
sF26.0
I2
sF29.0
I2
sF30.0
I1
sF31.0
I2
sF33.0
I2
sF34.0
I3
sF38.0
I2
sF40.0
I1
sF42.0
I3
sF43.0
I2
sF44.0
I1
sF46.0
I1
sF48.0
I1
sF49.0
I1
sF50.0
I1
sF51.0
I1
sF53.0
I1
sF62.0
I1
sF66.0
I2
ssbsg26
I7
sg27
F63.0
sg28
Nsbsg26
I23
sg27
F30.0
sg28
Nsbsg25
(iregression_tree
decision_node
p1851
(dp1852
g2
(iregression_tree
decision_node
p1853
(dp1854
g2
(iregression_tree
decision_node
p1855
(dp1856
g2
Nsg25
Nsg26
I-1
sg27
Nsg28
(dp1857
F1.0
I1
sF42.0
I4
sF43.0
I1
sF44.0
I1
sF13.0
I1
sF45.0
I3
sF48.0
I1
sF50.0
I1
sF19.0
I1
sF20.0
I1
sF21.0
I1
sF23.0
I1
sF57.0
I2
sF26.0
I1
sF30.0
I1
ssbsg25
(iregression_tree
decision_node
p1858
(dp1859
g2
Nsg25
Nsg26
I-1
sg27
Nsg28
(dp1860
F34.0
I3
sF75.0
I2
sF69.0
I1
sF31.0
I1
sF40.0
I2
sF41.0
I1
sF43.0
I1
sF46.0
I1
sF47.0
I1
sF51.0
I2
sF85.0
I2
sF63.0
I2
sF53.0
I2
ssbsg26
I6
sg27
F73.0
sg28
Nsbsg25
(iregression_tree
decision_node
p1861
(dp1862
g2
(iregression_tree
decision_node
p1863
(dp1864
g2
Nsg25
Nsg26
I-1
sg27
Nsg28
(dp1865
F32.0
I1
sF36.0
I1
sF39.0
I1
sF41.0
I2
sF78.0
I1
sF47.0
I7
sF50.0
I1
sF20.0
I2
sF53.0
I2
sF54.0
I3
ssbsg25
(iregression_tree
decision_node
p1866
(dp1867
g2
(iregression_tree
decision_node
p1868
(dp1869
g2
Nsg25
Nsg26
I-1
sg27
Nsg28
(dp1870
F11.0
I1
sF12.0
I3
sF13.0
I2
sF14.0
I1
sF16.0
I1
sF17.0
I2
sF18.0
I1
sF20.0
I4
sF21.0
I6
sF22.0
I1
sF23.0
I4
sF27.0
I2
sF29.0
I1
sF32.0
I3
sF35.0
I2
sF38.0
I1
sF40.0
I1
sF44.0
I1
sF45.0
I1
sF46.0
I1
sF51.0
I1
sF57.0
I1
ssbsg25
(iregression_tree
decision_node
p1871
(dp1872
g2
Nsg25
Nsg26
I-1
sg27
Nsg28
(dp1873
F1.0
I2
sF12.0
I2
sF15.0
I3
sF17.0
I1
sF22.0
I1
sF23.0
I1
sF25.0
I2
sF26.0
I1
sF27.0
I1
sF29.0
I1
sF30.0
I1
sF31.0
I1
sF36.0
I3
sF39.0
I3
sF42.0
I4
sF44.0
I1
sF49.0
I2
sF50.0
I1
sF55.0
I2
sF56.0
I1
sF59.0
I2
sF80.0
I1
sF85.0
I1
sF88.0
I1
ssbsg26
I26
sg27
F4.0
sg28
Nsbsg26
I19
sg27
F55.0
sg28
Nsbsg26
I22
sg27
F72.0
sg28
Nsbsg26
I8
sg27
F61.0
sg28
Nsbsg26
I10
sg27
F59.0
sg28
Nsbsg26
I22
sg27
F66.0
sg28
Nsbsg26
I20
sg27
F36.0
sg28
Nsbsg25
(iregression_tree
decision_node
p1874
(dp1875
g2
(iregression_tree
decision_node
p1876
(dp1877
g2
(iregression_tree
decision_node
p1878
(dp1879
g2
(iregression_tree
decision_node
p1880
(dp1881
g2
(iregression_tree
decision_node
p1882
(dp1883
g2
Nsg25
Nsg26
I-1
sg27
Nsg28
(dp1884
F0.0
I2
sF1.0
I1
sF6.0
I1
sF8.0
I1
sF10.0
I2
sF13.0
I1
sF16.0
I1
sF18.0
I2
sF19.0
I2
sF20.0
I1
sF21.0
I3
sF22.0
I5
sF23.0
I2
sF24.0
I1
sF25.0
I4
sF27.0
I1
sF28.0
I2
sF30.0
I2
sF31.0
I1
sF32.0
I1
sF34.0
I1
sF40.0
I1
sF44.0
I1
sF51.0
I1
ssbsg25
(iregression_tree
decision_node
p1885
(dp1886
g2
Nsg25
Nsg26
I-1
sg27
Nsg28
(dp1887
F1.0
I1
sF11.0
I1
sF36.0
I2
sF33.0
I1
sF41.0
I1
sF43.0
I1
sF12.0
I1
sF46.0
I2
sF15.0
I2
sF50.0
I1
sF19.0
I3
sF14.0
I2
sF22.0
I2
sF25.0
I1
sF24.0
I1
sF68.0
I1
sF26.0
I1
sF47.0
I1
sF30.0
I2
ssbsg26
I3
sg27
F74.0
sg28
Nsbsg25
(iregression_tree
decision_node
p1888
(dp1889
g2
(iregression_tree
decision_node
p1890
(dp1891
g2
Nsg25
Nsg26
I-1
sg27
Nsg28
(dp1892
F65.0
I1
sF36.0
I1
sF37.0
I1
sF71.0
I1
sF40.0
I1
sF76.0
I1
sF74.0
I1
sF44.0
I4
sF46.0
I4
sF17.0
I1
sF19.0
I2
sF22.0
I1
sF23.0
I1
sF24.0
I1
sF62.0
I1
ssbsg25
(iregression_tree
decision_node
p1893
(dp1894
g2
Nsg25
Nsg26
I-1
sg27
Nsg28
(dp1895
F35.0
I1
sF8.0
I4
sF110.0
I1
sF40.0
I1
sF24.0
I5
sF25.0
I1
sF29.0
I6
sF31.0
I2
ssbsg26
I8
sg27
F78.0
sg28
Nsbsg26
I4
sg27
F78.0
sg28
Nsbsg25
(iregression_tree
decision_node
p1896
(dp1897
g2
(iregression_tree
decision_node
p1898
(dp1899
g2
Nsg25
Nsg26
I-1
sg27
Nsg28
(dp1900
F0.0
I2
sF1.0
I7
sF38.0
I2
sF32.0
I1
sF28.0
I2
sF10.0
I2
sF12.0
I4
sF15.0
I4
sF16.0
I2
sF18.0
I4
sF51.0
I1
sF20.0
I1
sF22.0
I2
sF9.0
I1
sF24.0
I2
sF25.0
I2
sF27.0
I1
sF60.0
I1
ssbsg25
(iregression_tree
decision_node
p1901
(dp1902
g2
Nsg25
Nsg26
I-1
sg27
Nsg28
(dp1903
F33.0
I1
sF34.0
I1
sF36.0
I1
sF54.0
I1
sF39.0
I1
sF10.0
I1
sF11.0
I1
sF13.0
I2
sF16.0
I1
sF21.0
I1
sF22.0
I2
sF23.0
I3
sF25.0
I1
sF26.0
I1
sF28.0
I2
sF30.0
I1
sF31.0
I1
ssbsg26
I13
sg27
F75.0
sg28
Nsbsg26
I21
sg27
F75.0
sg28
Nsbsg25
(iregression_tree
decision_node
p1904
(dp1905
g2
(iregression_tree
decision_node
p1906
(dp1907
g2
Nsg25
Nsg26
I-1
sg27
Nsg28
(dp1908
F32.0
I1
sF1.0
I1
sF35.0
I3
sF19.0
I2
sF39.0
I2
sF9.0
I1
sF10.0
I1
sF11.0
I1
sF12.0
I3
sF15.0
I2
sF51.0
I1
sF53.0
I1
sF22.0
I3
sF56.0
I2
sF26.0
I2
sF29.0
I3
sF30.0
I1
sF0.0
I1
ssbsg25
(iregression_tree
decision_node
p1909
(dp1910
g2
Nsg25
Nsg26
I-1
sg27
Nsg28
(dp1911
F33.0
I1
sF66.0
I1
sF41.0
I1
sF45.0
I1
sF13.0
I1
sF34.0
I2
sF46.0
I2
sF47.0
I5
sF76.0
I1
sF24.0
I1
sF50.0
I2
sF120.0
I1
sF26.0
I2
sF29.0
I3
ssbsg26
I25
sg27
F60.0
sg28
Nsbsg26
I21
sg27
F78.0
sg28
Nsbsg26
I8
sg27
F71.0
sg28
Nsbsg26
I28
sg27
F76.0
sg28
Nsbsg25
(iregression_tree
decision_node
p1912
(dp1913
g2
(iregression_tree
decision_node
p1914
(dp1915
g2
(iregression_tree
decision_node
p1916
(dp1917
g2
(iregression_tree
decision_node
p1918
(dp1919
g2
Nsg25
Nsg26
I-1
sg27
Nsg28
(dp1920
F1.0
I1
sF38.0
I1
sF39.0
I3
sF41.0
I2
sF11.0
I3
sF48.0
I1
sF17.0
I3
sF18.0
I1
sF19.0
I1
sF20.0
I3
sF25.0
I1
sF90.0
I1
sF27.0
I1
sF30.0
I1
ssbsg25
(iregression_tree
decision_node
p1921
(dp1922
g2
(iregression_tree
decision_node
p1923
(dp1924
g2
Nsg25
Nsg26
I-1
sg27
Nsg28
(dp1925
F1.0
I1
sF17.0
I2
sF24.0
I1
sF26.0
I3
sF27.0
I2
sF30.0
I1
sF31.0
I1
sF36.0
I2
sF40.0
I3
sF41.0
I1
sF44.0
I1
sF54.0
I1
sF56.0
I2
sF57.0
I4
sF65.0
I1
sF78.0
I1
sF79.0
I1
sF84.0
I1
sF90.0
I1
sF92.0
I1
sF94.0
I2
sF105.0
I2
sF120.0
I1
sF125.0
I1
ssbsg25
(iregression_tree
decision_node
p1926
(dp1927
g2
(iregression_tree
decision_node
p1928
(dp1929
g2
Nsg25
Nsg26
I-1
sg27
Nsg28
(dp1930
F32.0
I2
sF33.0
I1
sF34.0
I4
sF67.0
I2
sF76.0
I1
sF10.0
I1
sF140.0
I1
sF45.0
I5
sF79.0
I1
sF16.0
I1
sF41.0
I2
sF23.0
I1
sF59.0
I1
sF60.0
I1
sF29.0
I1
sF31.0
I1
ssbsg25
(iregression_tree
decision_node
p1931
(dp1932
g2
Nsg25
Nsg26
I-1
sg27
Nsg28
(dp1933
F19.0
I1
sF1.0
I2
sF34.0
I1
sF67.0
I1
sF39.0
I1
sF40.0
I4
sF41.0
I1
sF43.0
I1
sF13.0
I1
sF15.0
I2
sF18.0
I1
sF35.0
I1
sF22.0
I2
sF25.0
I1
sF31.0
I2
ssbsg26
I27
sg27
F4.0
sg28
Nsbsg26
I5
sg27
F75.0
sg28
Nsbsg26
I20
sg27
F76.0
sg28
Nsbsg25
(iregression_tree
decision_node
p1934
(dp1935
g2
(iregression_tree
decision_node
p1936
(dp1937
g2
(iregression_tree
decision_node
p1938
(dp1939
g2
(iregression_tree
decision_node
p1940
(dp1941
g2
Nsg25
Nsg26
I-1
sg27
Nsg28
(dp1942
F0.0
I2
sF51.0
I1
sF99.0
I1
sF36.0
I2
sF37.0
I2
sF38.0
I2
sF39.0
I2
sF23.0
I1
sF44.0
I2
sF110.0
I1
sF80.0
I2
sF17.0
I2
sF19.0
I2
sF55.0
I1
sF68.0
I1
sF26.0
I2
sF28.0
I2
sF58.0
I1
ssbsg25
(iregression_tree
decision_node
p1943
(dp1944
g2
Nsg25
Nsg26
I-1
sg27
Nsg28
(dp1945
F32.0
I2
sF51.0
I3
sF34.0
I2
sF35.0
I1
sF42.0
I1
sF33.0
I2
sF73.0
I2
sF41.0
I1
sF77.0
I1
sF79.0
I1
sF99.0
I3
sF115.0
I4
sF53.0
I2
sF23.0
I1
sF88.0
I2
sF58.0
I1
sF59.0
I1
sF92.0
I1
sF26.0
I1
sF94.0
I1
sF85.0
I1
ssbsg26
I6
sg27
F62.0
sg28
Nsbsg25
(iregression_tree
decision_node
p1946
(dp1947
g2
Nsg25
Nsg26
I-1
sg27
Nsg28
(dp1948
F64.0
I2
sF1.0
I5
sF34.0
I1
sF35.0
I2
sF38.0
I2
sF75.0
I1
sF43.0
I4
sF44.0
I2
sF50.0
I1
sF46.0
I1
sF18.0
I1
sF20.0
I6
sF53.0
I1
sF22.0
I1
sF56.0
I3
sF57.0
I1
sF58.0
I1
sF27.0
I1
sF26.0
I1
sF21.0
I1
ssbsg26
I17
sg27
F80.0
sg28
Nsbsg25
(iregression_tree
decision_node
p1949
(dp1950
g2
(iregression_tree
decision_node
p1951
(dp1952
g2
(iregression_tree
decision_node
p1953
(dp1954
g2
Nsg25
Nsg26
I-1
sg27
Nsg28
(dp1955
F19.0
I1
sF32.0
I1
sF83.0
I1
sF67.0
I1
sF37.0
I1
sF74.0
I1
sF76.0
I1
sF77.0
I1
sF110.0
I3
sF29.0
I1
sF49.0
I1
sF115.0
I2
sF84.0
I2
sF85.0
I1
sF54.0
I1
sF57.0
I3
sF89.0
I1
sF125.0
I1
sF53.0
I1
ssbsg25
(iregression_tree
decision_node
p1956
(dp1957
g2
Nsg25
Nsg26
I-1
sg27
Nsg28
(dp1958
F0.0
I2
sF1.0
I1
sF27.0
I1
sF28.0
I1
sF30.0
I3
sF33.0
I1
sF34.0
I1
sF36.0
I1
sF37.0
I3
sF39.0
I1
sF44.0
I2
sF46.0
I1
sF47.0
I1
sF60.0
I1
sF61.0
I2
sF62.0
I3
sF63.0
I1
sF64.0
I2
sF73.0
I1
sF75.0
I2
sF82.0
I2
sF94.0
I1
sF110.0
I1
sF125.0
I1
ssbsg26
I24
sg27
F73.0
sg28
Nsbsg25
(iregression_tree
decision_node
p1959
(dp1960
g2
Nsg25
Nsg26
I-1
sg27
Nsg28
(dp1961
F1.0
I2
sF66.0
I1
sF99.0
I2
sF37.0
I1
sF105.0
I2
sF110.0
I1
sF61.0
I1
sF59.0
I1
sF87.0
I1
sF120.0
I4
sF27.0
I1
sF60.0
I1
sF125.0
I3
sF62.0
I2
ssbsg26
I23
sg27
F77.0
sg28
Nsbsg26
I20
sg27
F71.0
sg28
Nsbsg26
I25
sg27
F51.0
sg28
Nsbsg25
(iregression_tree
decision_node
p1962
(dp1963
g2
Nsg25
Nsg26
I-1
sg27
Nsg28
(dp1964
F64.0
I2
sF19.0
I2
sF98.0
I2
sF91.0
I1
sF165.0
I3
sF51.0
I1
sF11.0
I1
sF140.0
I3
sF110.0
I4
sF24.0
I1
sF49.0
I1
sF115.0
I1
sF84.0
I1
sF54.0
I1
sF120.0
I2
sF26.0
I1
sF59.0
I3
sF29.0
I2
sF95.0
I1
ssbsg26
I29
sg27
F87.0
sg28
Nsbsg26
I28
sg27
F79.0
sg28
Nsbsg26
I28
sg27
F74.0
sg28
Nsbsg25
(iregression_tree
decision_node
p1965
(dp1966
g2
(iregression_tree
decision_node
p1967
(dp1968
g2
(iregression_tree
decision_node
p1969
(dp1970
g2
(iregression_tree
decision_node
p1971
(dp1972
g2
(iregression_tree
decision_node
p1973
(dp1974
g2
Nsg25
Nsg26
I-1
sg27
Nsg28
(dp1975
F64.0
I3
sF66.0
I1
sF67.0
I1
sF22.0
I1
sF74.0
I1
sF140.0
I2
sF82.0
I1
sF80.0
I1
sF49.0
I2
sF18.0
I1
sF51.0
I1
sF180.0
I1
sF85.0
I3
sF86.0
I1
sF55.0
I2
sF57.0
I1
sF91.0
I1
sF28.0
I1
sF29.0
I2
sF94.0
I1
sF63.0
I2
ssbsg25
(iregression_tree
decision_node
p1976
(dp1977
g2
(iregression_tree
decision_node
p1978
(dp1979
g2
Nsg25
Nsg26
I-1
sg27
Nsg28
(dp1980
F96.0
I2
sF100.0
I1
sF165.0
I1
sF135.0
I2
sF105.0
I1
sF170.0
I3
sF140.0
I1
sF175.0
I1
sF240.0
I1
sF120.0
I1
sF51.0
I1
sF84.0
I1
sF88.0
I2
sF185.0
I1
sF125.0
I3
sF95.0
I1
ssbsg25
(iregression_tree
decision_node
p1981
(dp1982
g2
Nsg25
Nsg26
I-1
sg27
Nsg28
(dp1983
F66.0
I4
sF72.0
I2
sF73.0
I5
sF75.0
I1
sF77.0
I2
sF110.0
I1
sF175.0
I1
sF115.0
I6
sF105.0
I1
sF88.0
I1
sF25.0
I1
ssbsg26
I19
sg27
F79.0
sg28
Nsbsg26
I28
sg27
F84.0
sg28
Nsbsg25
(iregression_tree
decision_node
p1984
(dp1985
g2
Nsg25
Nsg26
I-1
sg27
Nsg28
(dp1986
F64.0
I1
sF160.0
I1
sF165.0
I1
sF72.0
I1
sF205.0
I1
sF110.0
I4
sF115.0
I2
sF180.0
I1
sF53.0
I2
sF150.0
I1
sF215.0
I3
sF120.0
I2
sF155.0
I2
ssbsg26
I14
sg27
F82.0
sg28
Nsbsg25
(iregression_tree
decision_node
p1987
(dp1988
g2
Nsg25
Nsg26
I-1
sg27
Nsg28
(dp1989
F160.0
I4
sF130.0
I1
sF195.0
I5
sF100.0
I1
sF135.0
I2
sF210.0
I1
sF115.0
I2
sF180.0
I2
sF260.0
I1
sF250.0
I1
sF155.0
I2
sF190.0
I2
ssbsg26
I28
sg27
F86.0
sg28
Nsbsg25
(iregression_tree
decision_node
p1990
(dp1991
g2
Nsg25
Nsg26
I-1
sg27
Nsg28
(dp1992
F160.0
I1
sF355.0
I5
sF420.0
I1
sF165.0
I1
sF200.0
I1
sF265.0
I2
sF300.0
I1
sF205.0
I5
sF285.0
I2
sF340.0
I1
sF245.0
I1
sF315.0
I5
sF380.0
I2
sF125.0
I1
ssbsg26
I28
sg27
F88.0
sg28
Nsbsg26
I28
sg27
F83.0
sg28
Nsb.